
Optional file vector_offset_init.o not found
Archive member included to satisfy reference by file (symbol)

c:/program files/microchip/xc32/v4.35/bin/bin/../../lib/gcc/pic32mx/8.3.1/../../../../pic32mx/lib/fpu64\libpic32.a(memset.o)
                              build/Config_2/debug/CAN_utils.o (memset)
c:/program files/microchip/xc32/v4.35/bin/bin/../../lib/gcc/pic32mx/8.3.1/../../../../pic32mx/lib/fpu64\libpic32.a(default-on-reset.o)
                              C:\Users\pedro\AppData\Local\Temp\ccPLik8y.o (_on_reset)
c:/program files/microchip/xc32/v4.35/bin/bin/../../lib/gcc/pic32mx/8.3.1/../../../../pic32mx/lib/fpu64\libpic32.a(default-on-bootstrap.o)
                              C:\Users\pedro\AppData\Local\Temp\ccPLik8y.o (_on_bootstrap)
c:/program files/microchip/xc32/v4.35/bin/bin/../../lib/gcc/pic32mx/8.3.1/../../../../pic32mx/lib/fpu64\libpic32.a(default-nmi-handler.o)
                              C:\Users\pedro\AppData\Local\Temp\ccPLik8y.o (_nmi_handler)
c:/program files/microchip/xc32/v4.35/bin/bin/../../lib/gcc/pic32mx/8.3.1/../../../../pic32mx/lib/fpu64\libpic32.a(pic32_data_init_core.o)
                              C:\Users\pedro\AppData\Local\Temp\ccPLik8y.o (__pic32_data_init)
c:/program files/microchip/xc32/v4.35/bin/bin/../../lib/gcc/pic32mx/8.3.1/../../../../pic32mx/lib/fpu64\libpic32.a(general-exception.o)
                              C:\Users\pedro\AppData\Local\Temp\ccPLik8y.o (_general_exception_context)
c:/program files/microchip/xc32/v4.35/bin/bin/../../lib/gcc/pic32mx/8.3.1/../../../../pic32mx/lib/fpu64\libpic32.a(defaultinterrupt.o)
                              C:\Users\pedro\AppData\Local\Temp\cc1EEsTA.o (_DefaultInterrupt)
c:/program files/microchip/xc32/v4.35/bin/bin/../../lib/gcc/pic32mx/8.3.1/../../../../pic32mx/lib/fpu64\libc-musl.a(__sio_printf_dn.o)
                              (_printf_dn)
c:/program files/microchip/xc32/v4.35/bin/bin/../../lib/gcc/pic32mx/8.3.1/../../../../pic32mx/lib/fpu64\libc-musl.a(__fmt_d.o)
                              c:/program files/microchip/xc32/v4.35/bin/bin/../../lib/gcc/pic32mx/8.3.1/../../../../pic32mx/lib/fpu64\libc-musl.a(__sio_printf_dn.o) (__fmt_d_needed)
c:/program files/microchip/xc32/v4.35/bin/bin/../../lib/gcc/pic32mx/8.3.1/../../../../pic32mx/lib/fpu64\libc-musl.a(__pop_int.o)
                              c:/program files/microchip/xc32/v4.35/bin/bin/../../lib/gcc/pic32mx/8.3.1/../../../../pic32mx/lib/fpu64\libc-musl.a(__sio_printf_dn.o) (__pop_int_needed)
c:/program files/microchip/xc32/v4.35/bin/bin/../../lib/gcc/pic32mx/8.3.1/../../../../pic32mx/lib/fpu64\libc-musl.a(__pop_ptr.o)
                              c:/program files/microchip/xc32/v4.35/bin/bin/../../lib/gcc/pic32mx/8.3.1/../../../../pic32mx/lib/fpu64\libc-musl.a(__sio_printf_dn.o) (__pop_ptr_needed)
c:/program files/microchip/xc32/v4.35/bin/bin/../../lib/gcc/pic32mx/8.3.1/../../../../pic32mx/lib/fpu64\libc-musl.a(__printf_core.o)
                              c:/program files/microchip/xc32/v4.35/bin/bin/../../lib/gcc/pic32mx/8.3.1/../../../../pic32mx/lib/fpu64\libc-musl.a(__fmt_d.o) (__pad)
c:/program files/microchip/xc32/v4.35/bin/bin/../../lib/gcc/pic32mx/8.3.1/../../../../pic32mx/lib/fpu64\libc-musl.a(fflush.o)
                              build/Config_2/debug/_ext/1360937237/main.o (fflush)
c:/program files/microchip/xc32/v4.35/bin/bin/../../lib/gcc/pic32mx/8.3.1/../../../../pic32mx/lib/fpu64\libc-musl.a(stdin.o)
                              build/Config_2/debug/_ext/1171490990/initialization.o (_stdin)
c:/program files/microchip/xc32/v4.35/bin/bin/../../lib/gcc/pic32mx/8.3.1/../../../../pic32mx/lib/fpu64\libc-musl.a(stdout.o)
                              build/Config_2/debug/_ext/1171490990/initialization.o (_stdout)
c:/program files/microchip/xc32/v4.35/bin/bin/../../lib/gcc/pic32mx/8.3.1/../../../../pic32mx/lib/fpu64\libc-musl.a(puts.o)
                              build/Config_2/debug/_ext/1360937237/main.o (puts)
c:/program files/microchip/xc32/v4.35/bin/bin/../../lib/gcc/pic32mx/8.3.1/../../../../pic32mx/lib/fpu64\libc-musl.a(setbuf.o)
                              build/Config_2/debug/_ext/1171490990/initialization.o (setbuf)
c:/program files/microchip/xc32/v4.35/bin/bin/../../lib/gcc/pic32mx/8.3.1/../../../../pic32mx/lib/fpu64\libc-musl.a(atoi.o)
                              build/Config_2/debug/_ext/772537440/cansart.o (atoi)
c:/program files/microchip/xc32/v4.35/bin/bin/../../lib/gcc/pic32mx/8.3.1/../../../../pic32mx/lib/fpu64\libc-musl.a(memcpy.o)
                              c:/program files/microchip/xc32/v4.35/bin/bin/../../lib/gcc/pic32mx/8.3.1/../../../../pic32mx/lib/fpu64\libc-musl.a(__printf_core.o) (memcpy)
c:/program files/microchip/xc32/v4.35/bin/bin/../../lib/gcc/pic32mx/8.3.1/../../../../pic32mx/lib/fpu64\libc-musl.a(strlen.o)
                              c:/program files/microchip/xc32/v4.35/bin/bin/../../lib/gcc/pic32mx/8.3.1/../../../../pic32mx/lib/fpu64\libc-musl.a(__printf_core.o) (strlen)
c:/program files/microchip/xc32/v4.35/bin/bin/../../lib/gcc/pic32mx/8.3.1/../../../../pic32mx/lib/fpu64\libc-musl.a(tolower.o)
                              c:/program files/microchip/xc32/v4.35/bin/bin/../../lib/gcc/pic32mx/8.3.1/../../../../pic32mx/lib/fpu64\libc-musl.a(__printf_core.o) (tolower)
c:/program files/microchip/xc32/v4.35/bin/bin/../../lib/gcc/pic32mx/8.3.1/../../../../pic32mx/lib/fpu64\libc-musl.a(__int_vfprintf.o)
                              c:/program files/microchip/xc32/v4.35/bin/bin/../../lib/gcc/pic32mx/8.3.1/../../../../pic32mx/lib/fpu64\libc-musl.a(__sio_printf_dn.o) (__vfprintf)
c:/program files/microchip/xc32/v4.35/bin/bin/../../lib/gcc/pic32mx/8.3.1/../../../../pic32mx/lib/fpu64\libc-musl.a(fputs.o)
                              c:/program files/microchip/xc32/v4.35/bin/bin/../../lib/gcc/pic32mx/8.3.1/../../../../pic32mx/lib/fpu64\libc-musl.a(puts.o) (fputs)
c:/program files/microchip/xc32/v4.35/bin/bin/../../lib/gcc/pic32mx/8.3.1/../../../../pic32mx/lib/fpu64\libc-musl.a(__cvt_u.o)
                              c:/program files/microchip/xc32/v4.35/bin/bin/../../lib/gcc/pic32mx/8.3.1/../../../../pic32mx/lib/fpu64\libc-musl.a(__fmt_d.o) (__cvt_u)
c:/program files/microchip/xc32/v4.35/bin/bin/../../lib/gcc/pic32mx/8.3.1/../../../../pic32mx/lib/fpu64\libc-musl.a(__io_init_needed.o)
                              c:/program files/microchip/xc32/v4.35/bin/bin/../../lib/gcc/pic32mx/8.3.1/../../../../pic32mx/lib/fpu64\libc-musl.a(stdout.o) (__io_init_needed)
c:/program files/microchip/xc32/v4.35/bin/bin/../../lib/gcc/pic32mx/8.3.1/../../../../pic32mx/lib/fpu64\libc-musl.a(__io_rw_needed.o)
                              c:/program files/microchip/xc32/v4.35/bin/bin/../../lib/gcc/pic32mx/8.3.1/../../../../pic32mx/lib/fpu64\libc-musl.a(stdin.o) (__io_rw_needed)
c:/program files/microchip/xc32/v4.35/bin/bin/../../lib/gcc/pic32mx/8.3.1/../../../../pic32mx/lib/fpu64\libc-musl.a(__out.o)
                              c:/program files/microchip/xc32/v4.35/bin/bin/../../lib/gcc/pic32mx/8.3.1/../../../../pic32mx/lib/fpu64\libc-musl.a(stdout.o) (__stdio_write_unbuffered)
c:/program files/microchip/xc32/v4.35/bin/bin/../../lib/gcc/pic32mx/8.3.1/../../../../pic32mx/lib/fpu64\libc-musl.a(__pop_float.o)
                              c:/program files/microchip/xc32/v4.35/bin/bin/../../lib/gcc/pic32mx/8.3.1/../../../../pic32mx/lib/fpu64\libc-musl.a(__printf_core.o) (__pop_float)
c:/program files/microchip/xc32/v4.35/bin/bin/../../lib/gcc/pic32mx/8.3.1/../../../../pic32mx/lib/fpu64\libc-musl.a(__stdio_close.o)
                              c:/program files/microchip/xc32/v4.35/bin/bin/../../lib/gcc/pic32mx/8.3.1/../../../../pic32mx/lib/fpu64\libc-musl.a(stdout.o) (__stdio_close_rw)
c:/program files/microchip/xc32/v4.35/bin/bin/../../lib/gcc/pic32mx/8.3.1/../../../../pic32mx/lib/fpu64\libc-musl.a(__stdio_read.o)
                              c:/program files/microchip/xc32/v4.35/bin/bin/../../lib/gcc/pic32mx/8.3.1/../../../../pic32mx/lib/fpu64\libc-musl.a(stdin.o) (__stdio_read)
c:/program files/microchip/xc32/v4.35/bin/bin/../../lib/gcc/pic32mx/8.3.1/../../../../pic32mx/lib/fpu64\libc-musl.a(__towrite_rw.o)
                              c:/program files/microchip/xc32/v4.35/bin/bin/../../lib/gcc/pic32mx/8.3.1/../../../../pic32mx/lib/fpu64\libc-musl.a(__io_rw_needed.o) (__towrite_rw_needed)
c:/program files/microchip/xc32/v4.35/bin/bin/../../lib/gcc/pic32mx/8.3.1/../../../../pic32mx/lib/fpu64\libc-musl.a(fwrite.o)
                              c:/program files/microchip/xc32/v4.35/bin/bin/../../lib/gcc/pic32mx/8.3.1/../../../../pic32mx/lib/fpu64\libc-musl.a(fputs.o) (fwrite)
c:/program files/microchip/xc32/v4.35/bin/bin/../../lib/gcc/pic32mx/8.3.1/../../../../pic32mx/lib/fpu64\libc-musl.a(putc.o)
                              c:/program files/microchip/xc32/v4.35/bin/bin/../../lib/gcc/pic32mx/8.3.1/../../../../pic32mx/lib/fpu64\libc-musl.a(puts.o) (putc_unlocked)
c:/program files/microchip/xc32/v4.35/bin/bin/../../lib/gcc/pic32mx/8.3.1/../../../../pic32mx/lib/fpu64\libc-musl.a(setvbuf.o)
                              c:/program files/microchip/xc32/v4.35/bin/bin/../../lib/gcc/pic32mx/8.3.1/../../../../pic32mx/lib/fpu64\libc-musl.a(setbuf.o) (setvbuf)
c:/program files/microchip/xc32/v4.35/bin/bin/../../lib/gcc/pic32mx/8.3.1/../../../../pic32mx/lib/fpu64\libc-musl.a(readv.o)
                              c:/program files/microchip/xc32/v4.35/bin/bin/../../lib/gcc/pic32mx/8.3.1/../../../../pic32mx/lib/fpu64\libc-musl.a(__stdio_read.o) (readv)
c:/program files/microchip/xc32/v4.35/bin/bin/../../lib/gcc/pic32mx/8.3.1/../../../../pic32mx/lib/fpu64\libc-musl.a(malloc.o)
                              c:/program files/microchip/xc32/v4.35/bin/bin/../../lib/gcc/pic32mx/8.3.1/../../../../pic32mx/lib/fpu64\libc-musl.a(setvbuf.o) (malloc)
c:/program files/microchip/xc32/v4.35/bin/bin/../../lib/gcc/pic32mx/8.3.1/../../../../pic32mx/lib/fpu64\libc-musl.a(expand_heap.o)
                              c:/program files/microchip/xc32/v4.35/bin/bin/../../lib/gcc/pic32mx/8.3.1/../../../../pic32mx/lib/fpu64\libc-musl.a(malloc.o) (__expand_heap)
c:/program files/microchip/xc32/v4.35/bin/bin/../../lib/gcc/pic32mx/8.3.1/../../../../pic32mx/lib/fpu64\libc-musl.a(__fopen_rw.o)
                              c:/program files/microchip/xc32/v4.35/bin/bin/../../lib/gcc/pic32mx/8.3.1/../../../../pic32mx/lib/fpu64\libc-musl.a(__io_rw_needed.o) (__fopen_rw_needed)
c:/program files/microchip/xc32/v4.35/bin/bin/../../lib/gcc/pic32mx/8.3.1/../../../../pic32mx/lib/fpu64\libc-musl.a(__ftello_rw.o)
                              c:/program files/microchip/xc32/v4.35/bin/bin/../../lib/gcc/pic32mx/8.3.1/../../../../pic32mx/lib/fpu64\libc-musl.a(__io_rw_needed.o) (__ftello_adj_rw_needed)
c:/program files/microchip/xc32/v4.35/bin/bin/../../lib/gcc/pic32mx/8.3.1/../../../../pic32mx/lib/fpu64\libc-musl.a(__init_stdio.o)
                              c:/program files/microchip/xc32/v4.35/bin/bin/../../lib/gcc/pic32mx/8.3.1/../../../../pic32mx/lib/fpu64\libc-musl.a(__io_init_needed.o) (__init_stdio_needed)
c:/program files/microchip/xc32/v4.35/bin/bin/../../lib/gcc/pic32mx/8.3.1/../../../../pic32mx/lib/fpu64\libc-musl.a(__io_buf_needed.o)
                              c:/program files/microchip/xc32/v4.35/bin/bin/../../lib/gcc/pic32mx/8.3.1/../../../../pic32mx/lib/fpu64\libc-musl.a(__io_rw_needed.o) (__io_buf_needed)
c:/program files/microchip/xc32/v4.35/bin/bin/../../lib/gcc/pic32mx/8.3.1/../../../../pic32mx/lib/fpu64\libc-musl.a(__io_file_needed.o)
                              c:/program files/microchip/xc32/v4.35/bin/bin/../../lib/gcc/pic32mx/8.3.1/../../../../pic32mx/lib/fpu64\libc-musl.a(__io_init_needed.o) (__io_file_needed)
c:/program files/microchip/xc32/v4.35/bin/bin/../../lib/gcc/pic32mx/8.3.1/../../../../pic32mx/lib/fpu64\libc-musl.a(__io_std_needed.o)
                              c:/program files/microchip/xc32/v4.35/bin/bin/../../lib/gcc/pic32mx/8.3.1/../../../../pic32mx/lib/fpu64\libc-musl.a(__io_buf_needed.o) (__io_std_needed)
c:/program files/microchip/xc32/v4.35/bin/bin/../../lib/gcc/pic32mx/8.3.1/../../../../pic32mx/lib/fpu64\libc-musl.a(__putc.o)
                              c:/program files/microchip/xc32/v4.35/bin/bin/../../lib/gcc/pic32mx/8.3.1/../../../../pic32mx/lib/fpu64\libc-musl.a(__io_buf_needed.o) (__putc_needed)
c:/program files/microchip/xc32/v4.35/bin/bin/../../lib/gcc/pic32mx/8.3.1/../../../../pic32mx/lib/fpu64\libc-musl.a(__stderr.o)
                              c:/program files/microchip/xc32/v4.35/bin/bin/../../lib/gcc/pic32mx/8.3.1/../../../../pic32mx/lib/fpu64\libc-musl.a(__io_std_needed.o) (__init_stderr_needed)
c:/program files/microchip/xc32/v4.35/bin/bin/../../lib/gcc/pic32mx/8.3.1/../../../../pic32mx/lib/fpu64\libc-musl.a(__stdio_exit.o)
                              c:/program files/microchip/xc32/v4.35/bin/bin/../../lib/gcc/pic32mx/8.3.1/../../../../pic32mx/lib/fpu64\libc-musl.a(__io_buf_needed.o) (__stdio_exit_needed)
c:/program files/microchip/xc32/v4.35/bin/bin/../../lib/gcc/pic32mx/8.3.1/../../../../pic32mx/lib/fpu64\libc-musl.a(__stdio_write.o)
                              c:/program files/microchip/xc32/v4.35/bin/bin/../../lib/gcc/pic32mx/8.3.1/../../../../pic32mx/lib/fpu64\libc-musl.a(setvbuf.o) (__stdio_write_buffered)
c:/program files/microchip/xc32/v4.35/bin/bin/../../lib/gcc/pic32mx/8.3.1/../../../../pic32mx/lib/fpu64\libc-musl.a(__stdout.o)
                              c:/program files/microchip/xc32/v4.35/bin/bin/../../lib/gcc/pic32mx/8.3.1/../../../../pic32mx/lib/fpu64\libc-musl.a(__io_std_needed.o) (__init_stdout_needed)
c:/program files/microchip/xc32/v4.35/bin/bin/../../lib/gcc/pic32mx/8.3.1/../../../../pic32mx/lib/fpu64\libc-musl.a(__towrite.o)
                              c:/program files/microchip/xc32/v4.35/bin/bin/../../lib/gcc/pic32mx/8.3.1/../../../../pic32mx/lib/fpu64\libc-musl.a(__stdio_write.o) (__towrite)
c:/program files/microchip/xc32/v4.35/bin/bin/../../lib/gcc/pic32mx/8.3.1/../../../../pic32mx/lib/fpu64\libc-musl.a(writev.o)
                              c:/program files/microchip/xc32/v4.35/bin/bin/../../lib/gcc/pic32mx/8.3.1/../../../../pic32mx/lib/fpu64\libc-musl.a(__stdio_write.o) (writev)
c:/program files/microchip/xc32/v4.35/bin/bin/../../lib/gcc/pic32mx/8.3.1/../../../../pic32mx/lib/fpu64\libc-musl.a(libc.o)
                              c:/program files/microchip/xc32/v4.35/bin/bin/../../lib/gcc/pic32mx/8.3.1/../../../../pic32mx/lib/fpu64\libc-musl.a(malloc.o) (__libc)
c:/program files/microchip/xc32/v4.35/bin/bin/../../lib/gcc/pic32mx/8.3.1/../../../../pic32mx/lib/fpu64\libc-musl.a(__overflow.o)
                              c:/program files/microchip/xc32/v4.35/bin/bin/../../lib/gcc/pic32mx/8.3.1/../../../../pic32mx/lib/fpu64\libc-musl.a(__putc.o) (__overflow)
c:/program files/microchip/xc32/v4.35/bin/bin/../../lib/gcc/pic32mx/8.3.1/../../../../pic32mx/lib/fpu64\libc-musl.a(__fclose.o)
                              c:/program files/microchip/xc32/v4.35/bin/bin/../../lib/gcc/pic32mx/8.3.1/../../../../pic32mx/lib/fpu64\libc-musl.a(__io_buf_needed.o) (__fclose_needed)
c:/program files/microchip/xc32/v4.35/bin/bin/../../lib/gcc/pic32mx/8.3.1/../../../../pic32mx/lib/fpu64\libc-musl.a(__fopen.o)
                              c:/program files/microchip/xc32/v4.35/bin/bin/../../lib/gcc/pic32mx/8.3.1/../../../../pic32mx/lib/fpu64\libc-musl.a(__io_std_needed.o) (__fopen_needed)
c:/program files/microchip/xc32/v4.35/bin/bin/../../lib/gcc/pic32mx/8.3.1/../../../../pic32mx/lib/fpu64\libc-musl.a(__fseeko.o)
                              c:/program files/microchip/xc32/v4.35/bin/bin/../../lib/gcc/pic32mx/8.3.1/../../../../pic32mx/lib/fpu64\libc-musl.a(__io_buf_needed.o) (__fseeko_needed)
c:/program files/microchip/xc32/v4.35/bin/bin/../../lib/gcc/pic32mx/8.3.1/../../../../pic32mx/lib/fpu64\libc-musl.a(__ftello.o)
                              c:/program files/microchip/xc32/v4.35/bin/bin/../../lib/gcc/pic32mx/8.3.1/../../../../pic32mx/lib/fpu64\libc-musl.a(__io_buf_needed.o) (__ftello_adj_needed)
c:/program files/microchip/xc32/v4.35/bin/bin/../../lib/gcc/pic32mx/8.3.1/../../../../pic32mx/lib/fpu64\libc-musl.a(__fwrite.o)
                              c:/program files/microchip/xc32/v4.35/bin/bin/../../lib/gcc/pic32mx/8.3.1/../../../../pic32mx/lib/fpu64\libc-musl.a(__io_std_needed.o) (__fwrite_needed)
c:/program files/microchip/xc32/v4.35/bin/bin/../../lib/gcc/pic32mx/8.3.1/fpu64\libgcc.a(_lshrdi3.o)
                              c:/program files/microchip/xc32/v4.35/bin/bin/../../lib/gcc/pic32mx/8.3.1/../../../../pic32mx/lib/fpu64\libc-musl.a(malloc.o) (__lshrdi3)
c:/program files/microchip/xc32/v4.35/bin/bin/../../lib/gcc/pic32mx/8.3.1/fpu64\libgcc.a(_ashldi3.o)
                              c:/program files/microchip/xc32/v4.35/bin/bin/../../lib/gcc/pic32mx/8.3.1/../../../../pic32mx/lib/fpu64\libc-musl.a(malloc.o) (__ashldi3)
c:/program files/microchip/xc32/v4.35/bin/bin/../../lib/gcc/pic32mx/8.3.1/fpu64\libgcc.a(_udivdi3.o)
                              c:/program files/microchip/xc32/v4.35/bin/bin/../../lib/gcc/pic32mx/8.3.1/../../../../pic32mx/lib/fpu64\libc-musl.a(__cvt_u.o) (__udivdi3)
c:/program files/microchip/xc32/v4.35/bin/bin/../../lib/gcc/pic32mx/8.3.1/fpu64\libgcc.a(_umoddi3.o)
                              c:/program files/microchip/xc32/v4.35/bin/bin/../../lib/gcc/pic32mx/8.3.1/../../../../pic32mx/lib/fpu64\libc-musl.a(__cvt_u.o) (__umoddi3)
c:/program files/microchip/xc32/v4.35/bin/bin/../../lib/gcc/pic32mx/8.3.1/../../../../pic32mx/lib/fpu64\libpic32.a(sbrk.o)
                              c:/program files/microchip/xc32/v4.35/bin/bin/../../lib/gcc/pic32mx/8.3.1/../../../../pic32mx/lib/fpu64\libc-musl.a(expand_heap.o) (_sbrk)
c:/program files/microchip/xc32/v4.35/bin/bin/../../lib/gcc/pic32mx/8.3.1/../../../../pic32mx/lib/fpu64\libpic32.a(lseek.o)
                              c:/program files/microchip/xc32/v4.35/bin/bin/../../lib/gcc/pic32mx/8.3.1/../../../../pic32mx/lib/fpu64\libc-musl.a(__stdio_close.o) (lseek)
c:/program files/microchip/xc32/v4.35/bin/bin/../../lib/gcc/pic32mx/8.3.1/../../../../pic32mx/lib/fpu64\libpic32.a(close.o)
                              c:/program files/microchip/xc32/v4.35/bin/bin/../../lib/gcc/pic32mx/8.3.1/../../../../pic32mx/lib/fpu64\libc-musl.a(__stdio_close.o) (close)
c:/program files/microchip/xc32/v4.35/bin/bin/../../lib/gcc/pic32mx/8.3.1/../../../../pic32mx/lib/fpu64\libpic32.a(errno.o)
                              c:/program files/microchip/xc32/v4.35/bin/bin/../../lib/gcc/pic32mx/8.3.1/../../../../pic32mx/lib/fpu64\libc-musl.a(__printf_core.o) (errno)

Optional file vector_offset_init.o not found
c:/program files/microchip/xc32/v4.35/bin/bin/../../lib/gcc/pic32mx/8.3.1/../../../../pic32mx/lib/fpu64\libpic32.a(pic32_data_init_clear.o)
                              (__dinit_clear_needed)
c:/program files/microchip/xc32/v4.35/bin/bin/../../lib/gcc/pic32mx/8.3.1/../../../../pic32mx/lib/fpu64\libpic32.a(pic32_data_init_copy.o)
                              (__dinit_copy_needed)

Microchip PIC32 Memory-Usage Report

kseg0 Program-Memory Usage
section                    address  length [bytes]      (dec)  Description
-------                 ----------  -------------------------  -----------
.text.ADCHS_Initialize  0x9d000000          0x17c         380   
.rodata.cst4            0x9d00017c            0x4           4   
.app_excpt              0x9d000180           0x10          16  General-Exception 
.text.alloc_fwd         0x9d000190           0x70         112   
.vectors                0x9d000200           0xa0         160   
.dinit                  0x9d0002a0          0x700        1792   
.text.__printf_core     0x9d0009a0          0x5a4        1444   
.text.main              0x9d000f44          0x3cc         972   
.text                   0x9d001310          0x774        1908  App's exec code 
.text.can_bus_read      0x9d001a84          0x328         808   
.text.malloc            0x9d001dac          0x298         664   
.text.PrintToConsole    0x9d002044          0x234         564   
.text.CAN3_MessageTrans 0x9d002278          0x224         548   
.text.CAN2_MessageTrans 0x9d00249c          0x224         548   
.text.CAN4_MessageTrans 0x9d0026c0          0x224         548   
.text.CAN1_MessageTrans 0x9d0028e4          0x220         544   
.text.TIMER_1_Handler   0x9d002b04          0x1d0         464   
.text.TIMER_2_Handler   0x9d002cd4          0x1d0         464   
.text.TIMER_3_Handler   0x9d002ea4          0x1d0         464   
.text.TIMER_4_Handler   0x9d003074          0x1d0         464   
.text.TIMER_5_Handler   0x9d003244          0x1d0         464   
.text.DMA0_Handler      0x9d003414          0x1d0         464   
.text.TIMER_6_Handler   0x9d0035e4          0x1d0         464   
.text.ADC_DATA0_Handler 0x9d0037b4          0x1d0         464   
.text.ADC_DATA3_Handler 0x9d003984          0x1d0         464   
.text.ADC_DATA8_Handler 0x9d003b54          0x1d0         464   
.text.ADC_DATA14_Handle 0x9d003d24          0x1d0         464   
.text.can_filter_id_bus 0x9d003ef4          0x1a4         420   
.text.free              0x9d004098          0x198         408   
.text.can_bus_send      0x9d004230          0x18c         396   
.text.__pop_int         0x9d0043bc          0x188         392   
.text._sbrk_init        0x9d004544          0x154         340   
.text.__fmt_d           0x9d004698          0x150         336   
.text.DMA0_InterruptHan 0x9d0047e8          0x13c         316   
.text.__cvt_u           0x9d004924          0x13c         316   
.text.CalculateMean     0x9d004a60          0x138         312   
.text.UART1_Read        0x9d004b98          0x134         308   
.text.UART3_Read        0x9d004ccc          0x134         308   
.text.APPS_Init         0x9d004e00          0x128         296   
.text.APPS_Function     0x9d004f28          0x118         280   
.text.__write_buffered  0x9d005040          0x114         276   
.text.GPIO_Initialize   0x9d005154          0x10c         268   
.text.SYS_Initialize    0x9d005260          0x10c         268   
.text.__stdio_write_buf 0x9d00536c          0x104         260   
.text.CAN1_MessageRecei 0x9d005470          0x100         256   
.text.CAN3_MessageRecei 0x9d005570          0x100         256   
.text.CAN2_MessageRecei 0x9d005670          0x100         256   
.text.CAN4_MessageRecei 0x9d005770          0x100         256   
.text.__pad             0x9d005870          0x100         256   
.text.BlinkCANLED       0x9d005970           0xf8         248   
.text.TMR1_5ms          0x9d005a68           0xf0         240   
.text.startupSequence   0x9d005b58           0xf0         240   
.text.__pop_ptr         0x9d005c48           0xe4         228   
.text.general_exception 0x9d005d2c           0xdc         220   
.text.CAN3_Initialize   0x9d005e08           0xd0         208   
.text.CAN2_Initialize   0x9d005ed8           0xcc         204   
.text.__stdio_read      0x9d005fa4           0xcc         204   
.text.CAN4_Initialize   0x9d006070           0xc8         200   
.text.CAN1_Initialize   0x9d006138           0xc0         192   
.text.__stdio_close_rw  0x9d0061f8           0xc0         192   
.text._sbrk             0x9d0062b8           0xb0         176   
.text.setvbuf           0x9d006368           0xac         172   
.text.unbin             0x9d006414           0xac         172   
.text.APPS_TimedOut     0x9d0064c0           0xa8         168   
.text                   0x9d006568           0xa8         168  App's exec code 
.rodata.PrintToConsole. 0x9d006610           0xa4         164   
.text.__overflow        0x9d0066b4           0x94         148   
.text.CLK_Initialize    0x9d006748           0x90         144   
.text.__out             0x9d0067d8           0x8c         140   
.text.TMR2_100ms        0x9d006864           0x7c         124   
.text                   0x9d0068e0           0x7c         124  App's exec code 
.text.atoi              0x9d00695c           0x7c         124   
.text.__readv           0x9d0069d8           0x7c         124   
.text.__writev          0x9d006a54           0x7c         124   
.text.UART3_Write       0x9d006ad0           0x74         116   
.text.alloc_rev         0x9d006b44           0x74         116   
.text.__putc            0x9d006bb8           0x70         112   
.text.EVIC_Initialize   0x9d006c28           0x6c         108   
.text.can_bus_send_AdBu 0x9d006c94           0x68         104   
.text.DMAC_Initialize   0x9d006cfc           0x64         100   
.text.write             0x9d006d60           0x64         100   
.text.fwrite            0x9d006dc4           0x60          96   
.text.__putc_unbuffered 0x9d006e24           0x60          96   
.text.bin_index         0x9d006e84           0x60          96   
.text.fflush            0x9d006ee4           0x5c          92   
.text.fputs             0x9d006f40           0x5c          92   
.rodata                 0x9d006f9c           0x5c          92  Read-only const 
.text.__fmt_state       0x9d006ff8           0x58          88   
.text.adjust_size       0x9d007050           0x58          88   
.text.trim              0x9d0070a8           0x58          88   
.text.ADC_DATA0_Interru 0x9d007100           0x54          84   
.text.ADC_DATA3_Interru 0x9d007154           0x54          84   
.text.ADC_DATA8_Interru 0x9d0071a8           0x54          84   
.text.ADC_DATA14_Interr 0x9d0071fc           0x54          84   
.text.SOUND_R2DS        0x9d007250           0x54          84   
.text.can_bus_send_data 0x9d0072a4           0x54          84   
.text.can_filter_id_bus 0x9d0072f8           0x54          84   
.text.main_entry        0x9d00734c           0x54          84   
.text.can_bus_send_data 0x9d0073a0           0x50          80   
.text.read              0x9d0073f0           0x4c          76   
.text.ADCHS_CH0_Callbac 0x9d00743c           0x4c          76   
.text.puts              0x9d007488           0x4c          76   
.text.IsR2D             0x9d0074d4           0x48          72   
.text.can_bus_send_HV50 0x9d00751c           0x48          72   
.text.__pop_float       0x9d007564           0x48          72   
.text.ADCHS_ChannelResu 0x9d0075ac           0x44          68   
.text.CORETIMER_DelayMs 0x9d0075f0           0x44          68   
.text.UART1_ErrorClear. 0x9d007634           0x44          68   
.text.UART3_ErrorClear. 0x9d007678           0x44          68   
.text.ConvertAPPSToTorq 0x9d0076bc           0x44          68   
.text                   0x9d007700           0x44          68  App's exec code 
.text.__towrite         0x9d007744           0x44          68   
.text.CAN1_TxFIFOQueueI 0x9d007788           0x40          64   
.text.CAN3_TxFIFOQueueI 0x9d0077c8           0x40          64   
.text.CAN2_TxFIFOQueueI 0x9d007808           0x40          64   
.text.CAN4_TxFIFOQueueI 0x9d007848           0x40          64   
.text.can_bus_send_data 0x9d007888           0x40          64   
.text.CORETIMER_Initial 0x9d0078c8           0x3c          60   
.text.can_bus_send_HV50 0x9d007904           0x3c          60   
.text.__wrap_printf     0x9d007940           0x3c          60   
.text.__vfprintf        0x9d00797c           0x3c          60   
.text.__towrite_rw      0x9d0079b8           0x3c          60   
.text.__expand_heap     0x9d0079f4           0x3c          60   
.text                   0x9d007a30           0x78         120  App's exec code 
.text.TMR4_Initialize   0x9d007aa8           0x38          56   
.text.TMR6_Initialize   0x9d007ae0           0x38          56   
.text.TMR5_Initialize   0x9d007b18           0x38          56   
.text.TMR6_500ms        0x9d007b50           0x38          56   
.text.can_bus_send_data 0x9d007b88           0x38          56   
.text.__fclose          0x9d007bc0           0x38          56   
.text.TMR2_Initialize   0x9d007bf8           0x34          52   
.text.TIMER_2_Interrupt 0x9d007c2c           0x34          52   
.text.TIMER_4_Interrupt 0x9d007c60           0x34          52   
.text.TMR3_Initialize   0x9d007c94           0x34          52   
.text.TIMER_3_Interrupt 0x9d007cc8           0x34          52   
.text.TIMER_6_Interrupt 0x9d007cfc           0x34          52   
.text.TIMER_5_Interrupt 0x9d007d30           0x34          52   
.text.TMR1_Initialize   0x9d007d64           0x34          52   
.text.TIMER_1_Interrupt 0x9d007d98           0x34          52   
.text.TMR4_500ms        0x9d007dcc           0x34          52   
.text.can_bus_send_HV50 0x9d007e00           0x34          52   
.text.lock_bin          0x9d007e34           0x34          52   
.text.__fwrite          0x9d007e68           0x34          52   
.text.DIP_Switch        0x9d007e9c           0x30          48   
.rodata.cst8            0x9d007ed0           0x30          48   
.text.strlen            0x9d007f00           0x30          48   
.text.memcpy            0x9d007f30           0x2c          44   
.text._stub_sbd_memlayo 0x9d007f5c           0x2c          44   
.text.UART1_Initialize  0x9d007f88           0x28          40   
.text.UART3_Initialize  0x9d007fb0           0x28          40   
.text.setbuf            0x9d007fd8           0x24          36   
.text.ADCHS_CallbackReg 0x9d007ffc           0x20          32   
.text._general_exceptio 0x9d00801c           0x20          32   
.rodata.cst4            0x9d00803c           0x20          32   
.text.__fwrite_min      0x9d00805c           0x20          32   
.text                   0x9d00807c           0x20          32  App's exec code 
.text.ADCHS_ModulesEnab 0x9d00809c           0x1c          28   
.text.WDT_Enable        0x9d0080b8           0x1c          28   
.text.tolower           0x9d0080d4           0x1c          28   
.text.putc              0x9d0080f0           0x1c          28   
.MIPS.abiflags          0x9d008110           0x18          24   
.text.ADCHS_ChannelResu 0x9d008128           0x18          24   
.text.CORETIMER_Counter 0x9d008140           0x18          24   
.text.WDT_Clear         0x9d008158           0x18          24   
.text.ConvertTorqueToCu 0x9d008170           0x18          24   
.text                   0x9d008188           0x18          24  App's exec code 
.rodata                 0x9d0081a0           0x18          24  Read-only const 
.text                   0x9d0081b8           0x18          24  App's exec code 
.text.CAN1_ErrorGet     0x9d0081d0           0x14          20   
.text.CAN3_ErrorGet     0x9d0081e4           0x14          20   
.text.CAN2_ErrorGet     0x9d0081f8           0x14          20   
.text.CAN4_ErrorGet     0x9d00820c           0x14          20   
.text.TMR2_Start        0x9d008220           0x14          20   
.text.TMR2_CallbackRegi 0x9d008234           0x14          20   
.text.TMR4_Start        0x9d008248           0x14          20   
.text.TMR4_CallbackRegi 0x9d00825c           0x14          20   
.text.TMR3_Start        0x9d008270           0x14          20   
.text.TMR6_Start        0x9d008284           0x14          20   
.text.TMR6_Stop         0x9d008298           0x14          20   
.text.TMR6_CallbackRegi 0x9d0082ac           0x14          20   
.text.TMR5_Start        0x9d0082c0           0x14          20   
.text.TMR5_Stop         0x9d0082d4           0x14          20   
.text.TMR5_CallbackRegi 0x9d0082e8           0x14          20   
.text.TMR1_Start        0x9d0082fc           0x14          20   
.text.TMR1_CallbackRegi 0x9d008310           0x14          20   
.text.TMR5_3s           0x9d008324           0x14          20   
.rodata.main.str1.4     0x9d008338           0x14          20   
.rodata                 0x9d00834c           0x14          20  Read-only const 
.rodata.dlcToLength     0x9d008360           0x20          32   
.rodata.dlcToLength     0x9d008380           0x20          32   
.text.UART1_ReceiverIsR 0x9d0083a0           0x10          16   
.text._bootstrap_except 0x9d0083b0           0x10          16   
.rodata.cst8            0x9d0083c0           0x10          16   
.text.__exception_handl 0x9d0083d0            0xc          12   
.rodata.str1.4          0x9d0083dc            0xc          12   
.text.ADCHS_CH3_Callbac 0x9d0083e8            0x8           8   
.text.ADCHS_CH8_Callbac 0x9d0083f0            0x8           8   
.text.ADCHS_CH14_Callba 0x9d0083f8            0x8           8   
.rodata.cst4            0x9d008400            0x8           8   
.rodata.cst8            0x9d008408            0x8           8   
.text._on_reset         0x9d008410            0x8           8   
.text._on_bootstrap     0x9d008418            0x8           8   
.text.__dummy_fmt3      0x9d008420            0x8           8   
.text.__dummy_fmt4      0x9d008428            0x8           8   
.text.__dummy_fmts      0x9d008430            0x8           8   
.text.__dummy1          0x9d008438            0x8           8   
.text.__dummy           0x9d008440           0x10          16   
.text.lseek             0x9d008450            0x8           8   
.text.close             0x9d008458            0x8           8   
      Total kseg0_program_mem used  :      0x8458       33880  3.2% of 0x100000

kseg0 Boot-Memory Usage
section                    address  length [bytes]      (dec)  Description
-------                 ----------  -------------------------  -----------
         Total kseg0_boot_mem used  :           0           0  

kseg1 Boot-Memory Usage
section                    address  length [bytes]      (dec)  Description
-------                 ----------  -------------------------  -----------
.reset                  0xbfc00000          0x1a4         420  Reset handler 
.bev_excpt              0xbfc00380           0x10          16  BEV-Exception 
         Total kseg1_boot_mem used  :       0x1b4         436  37.8% of 0x480
        --------------------------------------------------------------------------
         Total Program Memory used  :      0x860c       34316  3.3% of 0x100480
        --------------------------------------------------------------------------


Data-Memory Usage
section                    address  length [bytes]      (dec)  Description
-------                 ----------  -------------------------  -----------
reserve_data_0_kseg0    0x80000000          0x370         880   
.sdata                  0x80000370            0xc          12  Small init data 
.sbss                   0x8000037c           0xa8         168  Small uninit data 
.data._stdin            0x80000424            0x4           4   
.data._stdout           0x80000428            0x4           4   
.bss.errno              0x8000042c            0x4           4   
.data                   0x800071d0           0xd0         208  Initialized data 
.bss                    0x800072a0          0x618        1560  Uninitialized data 
.bss.ADCHS_CallbackObj  0x800078b8          0x1a8         424   
.bss.myHV500            0x80007a60           0xa4         164   
.bss.gDMAChannelObj     0x80007b04           0x80         128   
.bss                    0x80007b84           0x50          80  Uninitialized data 
.bss.data.35784         0x80007bd4           0x48          72   
.bss.adc_flag           0x80007c1c           0x40          64   
.bss.currentMillis      0x80007c5c           0x28          40   
.bss.previousMillis     0x80007c84           0x28          40   
.bss                    0x80007cac           0x24          36  Uninitialized data 
.bss.buffer.35991       0x80007cd0           0x14          20   
.bss.buffer.35988       0x80007ce4           0x14          20   
.bss.status             0x80007cf8           0x10          16   
reserve_data_0_kseg1    0xa0000000          0x370         880   
.COHERENTBSS$           0xa0000430         0x6da0       28064   
         Total kseg0/kseg1 data_mem used  :      0x8078       32888  12.5% of 0x40000

Data-Memory Usage
section                    address  length [bytes]      (dec)  Description
-------                 ----------  -------------------------  -----------
reserve_data_0_kseg0    0x80000000          0x370         880   
reserve_data_0_kseg1    0xa0000000          0x370         880   
         Total kseg0/kseg1 data_mem used  :       0x6e0        1760  200.0% of 0x370
        --------------------------------------------------------------------------
            Total Data Memory used  :      0x8758       34648  13.2% of 0x40370
        --------------------------------------------------------------------------


Dynamic Data-Memory Reservation
section                    address  length [bytes]      (dec)  Description
-------                 ----------  -------------------------  -----------
heap                    0x80007d10          0x200         512  Reserved for heap 
stack                   0x80007f28        0x380d0      229584  Reserved for stack 

        --------------------------------------------------------------------------

Note: Microchip PIC32 Memory-Usage Report By Module might not be accurate when used in conjunction with LTO!
Microchip PIC32 Memory-Usage Report By Module

        text        data         bss         dec         hex    basename                   filename
--------------------------------------------------------------------------------
        1112           0        7172        8284        205c    plib_canfd3.o          build/Config_2/debug/_ext/1984168316/plib_canfd3.o
        1108           0        6924        8032        1f60    plib_canfd2.o          build/Config_2/debug/_ext/1984168316/plib_canfd2.o
        1104           0        6924        8028        1f5c    plib_canfd4.o          build/Config_2/debug/_ext/1984168316/plib_canfd4.o
        1092           0        6912        8004        1f44    plib_canfd1.o          build/Config_2/debug/_ext/1984168316/plib_canfd1.o
        5192           0           0        5192        1448    interrupts.o           build/Config_2/debug/_ext/1171490990/interrupts.o
        3396           0         538        3934         f5e    main.o                 build/Config_2/debug/_ext/1360937237/main.o
        1888           0         528        2416         970    malloc.o               libc-musl.a
        2280           0          98        2378         94a    CAN_utils.o            build/Config_2/debug/CAN_utils.o
        1848           0           0        1848         738    __printf_core.o        libc-musl.a
        1792           0           0        1792         700    data_init              data_init
         868           0         424        1292         50c    plib_adchs.o           build/Config_2/debug/_ext/1982400153/plib_adchs.o
           8         108        1032        1148         47c    stdin.o                libc-musl.a
         956           0           0         956         3bc    _udivdi3.o             libgcc.a
         952           0           0         952         3b8    _umoddi3.o             libgcc.a
           0         920           0         920         398    ccCDuHJe.o             C:\Users\pedro\AppData\Local\Temp\ccCDuHJe.o
         764           6          23         793         319    APPS.o                 build/Config_2/debug/APPS.o
         560           0          36         596         254    sbrk.o                 libpic32.a
         416           0         128         544         220    plib_dmac.o            build/Config_2/debug/_ext/1865161661/plib_dmac.o
         536           0           0         536         218    ccPLik8y.o             C:\Users\pedro\AppData\Local\Temp\ccPLik8y.o
         536           0           0         536         218    __stdio_write.o        libc-musl.a
         532           0           0         532         214    plib_uart3.o           build/Config_2/debug/_ext/1865657120/plib_uart3.o
         432           0           0         432         1b0    plib_uart1.o           build/Config_2/debug/_ext/1865657120/plib_uart1.o
         392           0           0         392         188    __pop_int.o            libc-musl.a
         336           0           0         336         150    __fmt_d.o              libc-musl.a
         316           0           0         316         13c    __cvt_u.o              libc-musl.a
         288           0           0         288         120    initialization.o       build/Config_2/debug/_ext/1171490990/initialization.o
         268           0           0         268         10c    plib_gpio.o            build/Config_2/debug/_ext/1865254177/plib_gpio.o
         228           0           0         228          e4    __pop_ptr.o            libc-musl.a
         220           0           0         220          dc    general-exception.o    libpic32.a
         204           0           0         204          cc    __stdio_read.o         libc-musl.a
         192           0           0         192          c0    __stdio_close.o        libc-musl.a
         168           0           8         176          b0    plib_tmr5.o            build/Config_2/debug/_ext/60181895/plib_tmr5.o
         176           0           0         176          b0    xc32_monitor.o         build/Config_2/debug/_ext/163028504/xc32_monitor.o
         168           0           8         176          b0    plib_tmr6.o            build/Config_2/debug/_ext/60181895/plib_tmr6.o
         172           0           0         172          ac    setvbuf.o              libc-musl.a
         172           0           0         172          ac    __out.o                libc-musl.a
         168           0           0         168          a8    memset.o               libpic32.a
         148           0           8         156          9c    plib_tmr4.o            build/Config_2/debug/_ext/60181895/plib_tmr4.o
         152           4           0         156          9c    plib_coretimer.o       build/Config_2/debug/_ext/1249264884/plib_coretimer.o
         144           0           8         152          98    plib_tmr1.o            build/Config_2/debug/_ext/1865638794/plib_tmr1.o
         144           0           8         152          98    plib_tmr2.o            build/Config_2/debug/_ext/60181895/plib_tmr2.o
         148           0           0         148          94    __overflow.o           libc-musl.a
         144           0           0         144          90    pic32_data_init_core.o libpic32.a
         144           0           0         144          90    plib_clk.o             build/Config_2/debug/_ext/60165520/plib_clk.o
         124           0           8         132          84    plib_tmr3.o            build/Config_2/debug/_ext/60181895/plib_tmr3.o
         124           0           0         124          7c    atoi.o                 libc-musl.a
         124           0           0         124          7c    putc.o                 libc-musl.a
         124           0           0         124          7c    writev.o               libc-musl.a
         124           0           0         124          7c    readv.o                libc-musl.a
           8         108           0         116          74    stdout.o               libc-musl.a
         112           0           0         112          70    __putc.o               libc-musl.a
         108           0           0         108          6c    TorqueControl.o        build/Config_2/debug/TorqueControl.o
         108           0           0         108          6c    plib_evic.o            build/Config_2/debug/_ext/1865200349/plib_evic.o
         100           0           0         100          64    fflush.o               libc-musl.a
          96           0           0          96          60    fwrite.o               libc-musl.a
          92           0           0          92          5c    fputs.o                libc-musl.a
           0           0          80          80          50    libc.o                 libc-musl.a
          76           0           0          76          4c    puts.o                 libc-musl.a
          72           0           0          72          48    __pop_float.o          libc-musl.a
          72           0           0          72          48    defaultinterrupt.o     libpic32.a
          68           0           0          68          44    pic32_software_reset.o c:/program files/microchip/xc32/v4.35/bin/bin/../../lib/gcc/pic32mx/8.3.1/../../../../pic32mx/lib/fpu64\pic32_software_reset.o
          68           0           0          68          44    __towrite.o            libc-musl.a
          60           0           0          60          3c    __sio_printf_dn.o      libc-musl.a
          60           0           0          60          3c    expand_heap.o          libc-musl.a
          60           0           0          60          3c    _ashldi3.o             libgcc.a
          60           0           0          60          3c    __int_vfprintf.o       libc-musl.a
          60           0           0          60          3c    _lshrdi3.o             libgcc.a
          60           0           0          60          3c    __towrite_rw.o         libc-musl.a
          56           0           0          56          38    __fclose.o             libc-musl.a
          52           0           0          52          34    __fwrite.o             libc-musl.a
          52           0           0          52          34    plib_wdt.o             build/Config_2/debug/_ext/60184501/plib_wdt.o
          48           0           0          48          30    strlen.o               libc-musl.a
          48           0           0          48          30    exceptions.o           build/Config_2/debug/_ext/1171490990/exceptions.o
          44           0           0          44          2c    memcpy.o               libc-musl.a
          36           0           0          36          24    setbuf.o               libc-musl.a
          36           0           0          36          24    software-debug-break.o c:/program files/microchip/xc32/v4.35/bin/bin/../../lib/gcc/pic32mx/8.3.1/../../../../pic32mx/lib/fpu64\software-debug-break.o
          32           0           0          32          20    pic32_data_init_copy.o libpic32.a
          28           0           0          28          1c    tolower.o              libc-musl.a
          24           0           0          24          18    default-nmi-handler.o  libpic32.a
          24           0           0          24          18    pic32_data_init_clear.olibpic32.a
           8           0           0           8           8    lseek.o                libpic32.a
           8           0           0           8           8    default-on-bootstrap.o libpic32.a
           8           0           0           8           8    default-on-reset.o     libpic32.a
           8           0           0           8           8    close.o                libpic32.a
           0           0           4           4           4    errno.o                libpic32.a
           0           0        1760        1760         6e0    misc                   misc
           0           0           0          31          1f    padding                padding
--------------------------------------------------------------------------------
       34336        1146       32631       68144       10a30    dist/Config_2/debug/VCU2.0.X.debug.elf


Discarded input sections

 .text          0x0000000000000000        0x0 c:/program files/microchip/xc32/v4.35/bin/bin/../../lib/gcc/pic32mx/8.3.1/../../../../pic32mx/lib/fpu64\software-debug-break.o
 .data          0x0000000000000000        0x0 c:/program files/microchip/xc32/v4.35/bin/bin/../../lib/gcc/pic32mx/8.3.1/../../../../pic32mx/lib/fpu64\software-debug-break.o
 .bss           0x0000000000000000        0x0 c:/program files/microchip/xc32/v4.35/bin/bin/../../lib/gcc/pic32mx/8.3.1/../../../../pic32mx/lib/fpu64\software-debug-break.o
 .xc_stack_usage
                0x0000000000000000       0x27 c:/program files/microchip/xc32/v4.35/bin/bin/../../lib/gcc/pic32mx/8.3.1/../../../../pic32mx/lib/fpu64\software-debug-break.o
 .xc_stack_usage.hdr
                0x0000000000000000        0xe c:/program files/microchip/xc32/v4.35/bin/bin/../../lib/gcc/pic32mx/8.3.1/../../../../pic32mx/lib/fpu64\software-debug-break.o
 .text          0x0000000000000000        0x0 build/Config_2/debug/_ext/1982400153/plib_adchs.o
 .data          0x0000000000000000        0x0 build/Config_2/debug/_ext/1982400153/plib_adchs.o
 .bss           0x0000000000000000        0x0 build/Config_2/debug/_ext/1982400153/plib_adchs.o
 .reginfo       0x0000000000000000       0x18 build/Config_2/debug/_ext/1982400153/plib_adchs.o
 .MIPS.abiflags
                0x0000000000000000       0x18 build/Config_2/debug/_ext/1982400153/plib_adchs.o
 .text.ADCHS_ModulesDisable
                0x0000000000000000       0x20 build/Config_2/debug/_ext/1982400153/plib_adchs.o
 .text.ADCHS_ChannelResultInterruptDisable
                0x0000000000000000       0x50 build/Config_2/debug/_ext/1982400153/plib_adchs.o
 .text.ADCHS_ChannelEarlyInterruptEnable
                0x0000000000000000       0x44 build/Config_2/debug/_ext/1982400153/plib_adchs.o
 .text.ADCHS_ChannelEarlyInterruptDisable
                0x0000000000000000       0x50 build/Config_2/debug/_ext/1982400153/plib_adchs.o
 .text.ADCHS_GlobalEdgeConversionStart
                0x0000000000000000       0x1c build/Config_2/debug/_ext/1982400153/plib_adchs.o
 .text.ADCHS_GlobalLevelConversionStart
                0x0000000000000000       0x1c build/Config_2/debug/_ext/1982400153/plib_adchs.o
 .text.ADCHS_GlobalLevelConversionStop
                0x0000000000000000       0x18 build/Config_2/debug/_ext/1982400153/plib_adchs.o
 .text.ADCHS_ChannelConversionStart
                0x0000000000000000       0x28 build/Config_2/debug/_ext/1982400153/plib_adchs.o
 .text.ADCHS_ChannelResultIsReady
                0x0000000000000000       0x2c build/Config_2/debug/_ext/1982400153/plib_adchs.o
 .text.ADCHS_EOSStatusGet
                0x0000000000000000       0x10 build/Config_2/debug/_ext/1982400153/plib_adchs.o
 .text.ADC_DATA4_InterruptHandler
                0x0000000000000000       0x54 build/Config_2/debug/_ext/1982400153/plib_adchs.o
 .text          0x0000000000000000        0x0 build/Config_2/debug/_ext/1984168316/plib_canfd1.o
 .data          0x0000000000000000        0x0 build/Config_2/debug/_ext/1984168316/plib_canfd1.o
 .bss           0x0000000000000000        0x0 build/Config_2/debug/_ext/1984168316/plib_canfd1.o
 .reginfo       0x0000000000000000       0x18 build/Config_2/debug/_ext/1984168316/plib_canfd1.o
 .MIPS.abiflags
                0x0000000000000000       0x18 build/Config_2/debug/_ext/1984168316/plib_canfd1.o
 .text.CAN1_MessageAbort
                0x0000000000000000       0x54 build/Config_2/debug/_ext/1984168316/plib_canfd1.o
 .text.CAN1_MessageAcceptanceFilterSet
                0x0000000000000000       0x60 build/Config_2/debug/_ext/1984168316/plib_canfd1.o
 .text.CAN1_MessageAcceptanceFilterGet
                0x0000000000000000       0x4c build/Config_2/debug/_ext/1984168316/plib_canfd1.o
 .text.CAN1_MessageAcceptanceFilterMaskSet
                0x0000000000000000       0x90 build/Config_2/debug/_ext/1984168316/plib_canfd1.o
 .text.CAN1_MessageAcceptanceFilterMaskGet
                0x0000000000000000       0x4c build/Config_2/debug/_ext/1984168316/plib_canfd1.o
 .text.CAN1_ErrorCountGet
                0x0000000000000000       0x1c build/Config_2/debug/_ext/1984168316/plib_canfd1.o
 .text.CAN1_InterruptGet
                0x0000000000000000       0x40 build/Config_2/debug/_ext/1984168316/plib_canfd1.o
 .text.CAN1_AutoRTRResponseSet
                0x0000000000000000       0xd4 build/Config_2/debug/_ext/1984168316/plib_canfd1.o
 .text.CAN1_BitTimingCalculationGet
                0x0000000000000000      0x1d8 build/Config_2/debug/_ext/1984168316/plib_canfd1.o
 .text.CAN1_BitTimingSet
                0x0000000000000000      0x180 build/Config_2/debug/_ext/1984168316/plib_canfd1.o
 .rodata.cst4   0x0000000000000000        0xc build/Config_2/debug/_ext/1984168316/plib_canfd1.o
 .text          0x0000000000000000        0x0 build/Config_2/debug/_ext/1984168316/plib_canfd3.o
 .data          0x0000000000000000        0x0 build/Config_2/debug/_ext/1984168316/plib_canfd3.o
 .bss           0x0000000000000000        0x0 build/Config_2/debug/_ext/1984168316/plib_canfd3.o
 .reginfo       0x0000000000000000       0x18 build/Config_2/debug/_ext/1984168316/plib_canfd3.o
 .MIPS.abiflags
                0x0000000000000000       0x18 build/Config_2/debug/_ext/1984168316/plib_canfd3.o
 .text.CAN3_MessageAbort
                0x0000000000000000       0x54 build/Config_2/debug/_ext/1984168316/plib_canfd3.o
 .text.CAN3_MessageAcceptanceFilterSet
                0x0000000000000000       0x60 build/Config_2/debug/_ext/1984168316/plib_canfd3.o
 .text.CAN3_MessageAcceptanceFilterGet
                0x0000000000000000       0x4c build/Config_2/debug/_ext/1984168316/plib_canfd3.o
 .text.CAN3_MessageAcceptanceFilterMaskSet
                0x0000000000000000       0x90 build/Config_2/debug/_ext/1984168316/plib_canfd3.o
 .text.CAN3_MessageAcceptanceFilterMaskGet
                0x0000000000000000       0x4c build/Config_2/debug/_ext/1984168316/plib_canfd3.o
 .text.CAN3_TransmitEventFIFOElementGet
                0x0000000000000000       0x60 build/Config_2/debug/_ext/1984168316/plib_canfd3.o
 .text.CAN3_ErrorCountGet
                0x0000000000000000       0x1c build/Config_2/debug/_ext/1984168316/plib_canfd3.o
 .text.CAN3_InterruptGet
                0x0000000000000000       0x40 build/Config_2/debug/_ext/1984168316/plib_canfd3.o
 .text.CAN3_AutoRTRResponseSet
                0x0000000000000000       0xd4 build/Config_2/debug/_ext/1984168316/plib_canfd3.o
 .text.CAN3_BitTimingCalculationGet
                0x0000000000000000      0x1d8 build/Config_2/debug/_ext/1984168316/plib_canfd3.o
 .text.CAN3_BitTimingSet
                0x0000000000000000      0x180 build/Config_2/debug/_ext/1984168316/plib_canfd3.o
 .rodata.cst4   0x0000000000000000        0xc build/Config_2/debug/_ext/1984168316/plib_canfd3.o
 .text          0x0000000000000000        0x0 build/Config_2/debug/_ext/1984168316/plib_canfd2.o
 .data          0x0000000000000000        0x0 build/Config_2/debug/_ext/1984168316/plib_canfd2.o
 .bss           0x0000000000000000        0x0 build/Config_2/debug/_ext/1984168316/plib_canfd2.o
 .reginfo       0x0000000000000000       0x18 build/Config_2/debug/_ext/1984168316/plib_canfd2.o
 .MIPS.abiflags
                0x0000000000000000       0x18 build/Config_2/debug/_ext/1984168316/plib_canfd2.o
 .text.CAN2_MessageAbort
                0x0000000000000000       0x54 build/Config_2/debug/_ext/1984168316/plib_canfd2.o
 .text.CAN2_MessageAcceptanceFilterSet
                0x0000000000000000       0x60 build/Config_2/debug/_ext/1984168316/plib_canfd2.o
 .text.CAN2_MessageAcceptanceFilterGet
                0x0000000000000000       0x4c build/Config_2/debug/_ext/1984168316/plib_canfd2.o
 .text.CAN2_MessageAcceptanceFilterMaskSet
                0x0000000000000000       0x90 build/Config_2/debug/_ext/1984168316/plib_canfd2.o
 .text.CAN2_MessageAcceptanceFilterMaskGet
                0x0000000000000000       0x4c build/Config_2/debug/_ext/1984168316/plib_canfd2.o
 .text.CAN2_TransmitEventFIFOElementGet
                0x0000000000000000       0x60 build/Config_2/debug/_ext/1984168316/plib_canfd2.o
 .text.CAN2_ErrorCountGet
                0x0000000000000000       0x1c build/Config_2/debug/_ext/1984168316/plib_canfd2.o
 .text.CAN2_InterruptGet
                0x0000000000000000       0x40 build/Config_2/debug/_ext/1984168316/plib_canfd2.o
 .text.CAN2_AutoRTRResponseSet
                0x0000000000000000       0xd4 build/Config_2/debug/_ext/1984168316/plib_canfd2.o
 .text.CAN2_BitTimingCalculationGet
                0x0000000000000000      0x1d8 build/Config_2/debug/_ext/1984168316/plib_canfd2.o
 .text.CAN2_BitTimingSet
                0x0000000000000000      0x180 build/Config_2/debug/_ext/1984168316/plib_canfd2.o
 .rodata.cst4   0x0000000000000000        0xc build/Config_2/debug/_ext/1984168316/plib_canfd2.o
 .text          0x0000000000000000        0x0 build/Config_2/debug/_ext/1984168316/plib_canfd4.o
 .data          0x0000000000000000        0x0 build/Config_2/debug/_ext/1984168316/plib_canfd4.o
 .bss           0x0000000000000000        0x0 build/Config_2/debug/_ext/1984168316/plib_canfd4.o
 .reginfo       0x0000000000000000       0x18 build/Config_2/debug/_ext/1984168316/plib_canfd4.o
 .MIPS.abiflags
                0x0000000000000000       0x18 build/Config_2/debug/_ext/1984168316/plib_canfd4.o
 .text.CAN4_MessageAbort
                0x0000000000000000       0x54 build/Config_2/debug/_ext/1984168316/plib_canfd4.o
 .text.CAN4_MessageAcceptanceFilterSet
                0x0000000000000000       0x60 build/Config_2/debug/_ext/1984168316/plib_canfd4.o
 .text.CAN4_MessageAcceptanceFilterGet
                0x0000000000000000       0x4c build/Config_2/debug/_ext/1984168316/plib_canfd4.o
 .text.CAN4_MessageAcceptanceFilterMaskSet
                0x0000000000000000       0x90 build/Config_2/debug/_ext/1984168316/plib_canfd4.o
 .text.CAN4_MessageAcceptanceFilterMaskGet
                0x0000000000000000       0x4c build/Config_2/debug/_ext/1984168316/plib_canfd4.o
 .text.CAN4_TransmitEventFIFOElementGet
                0x0000000000000000       0x60 build/Config_2/debug/_ext/1984168316/plib_canfd4.o
 .text.CAN4_ErrorCountGet
                0x0000000000000000       0x1c build/Config_2/debug/_ext/1984168316/plib_canfd4.o
 .text.CAN4_InterruptGet
                0x0000000000000000       0x40 build/Config_2/debug/_ext/1984168316/plib_canfd4.o
 .text.CAN4_AutoRTRResponseSet
                0x0000000000000000       0xd4 build/Config_2/debug/_ext/1984168316/plib_canfd4.o
 .text.CAN4_BitTimingCalculationGet
                0x0000000000000000      0x1d8 build/Config_2/debug/_ext/1984168316/plib_canfd4.o
 .text.CAN4_BitTimingSet
                0x0000000000000000      0x180 build/Config_2/debug/_ext/1984168316/plib_canfd4.o
 .rodata.cst4   0x0000000000000000        0xc build/Config_2/debug/_ext/1984168316/plib_canfd4.o
 .text          0x0000000000000000        0x0 build/Config_2/debug/_ext/60165520/plib_clk.o
 .data          0x0000000000000000        0x0 build/Config_2/debug/_ext/60165520/plib_clk.o
 .bss           0x0000000000000000        0x0 build/Config_2/debug/_ext/60165520/plib_clk.o
 .reginfo       0x0000000000000000       0x18 build/Config_2/debug/_ext/60165520/plib_clk.o
 .MIPS.abiflags
                0x0000000000000000       0x18 build/Config_2/debug/_ext/60165520/plib_clk.o
 .text          0x0000000000000000        0x0 build/Config_2/debug/_ext/1249264884/plib_coretimer.o
 .data          0x0000000000000000        0x0 build/Config_2/debug/_ext/1249264884/plib_coretimer.o
 .bss           0x0000000000000000        0x0 build/Config_2/debug/_ext/1249264884/plib_coretimer.o
 .reginfo       0x0000000000000000       0x18 build/Config_2/debug/_ext/1249264884/plib_coretimer.o
 .MIPS.abiflags
                0x0000000000000000       0x18 build/Config_2/debug/_ext/1249264884/plib_coretimer.o
 .text.CORETIMER_Start
                0x0000000000000000       0x5c build/Config_2/debug/_ext/1249264884/plib_coretimer.o
 .text.CORETIMER_Stop
                0x0000000000000000       0x28 build/Config_2/debug/_ext/1249264884/plib_coretimer.o
 .text.CORETIMER_FrequencyGet
                0x0000000000000000        0xc build/Config_2/debug/_ext/1249264884/plib_coretimer.o
 .text.CORETIMER_CompareSet
                0x0000000000000000       0x20 build/Config_2/debug/_ext/1249264884/plib_coretimer.o
 .text.CORETIMER_CompareHasExpired
                0x0000000000000000       0x20 build/Config_2/debug/_ext/1249264884/plib_coretimer.o
 .text.CORETIMER_DelayUs
                0x0000000000000000       0x34 build/Config_2/debug/_ext/1249264884/plib_coretimer.o
 .text          0x0000000000000000        0x0 build/Config_2/debug/_ext/1865161661/plib_dmac.o
 .data          0x0000000000000000        0x0 build/Config_2/debug/_ext/1865161661/plib_dmac.o
 .bss           0x0000000000000000        0x0 build/Config_2/debug/_ext/1865161661/plib_dmac.o
 .reginfo       0x0000000000000000       0x18 build/Config_2/debug/_ext/1865161661/plib_dmac.o
 .MIPS.abiflags
                0x0000000000000000       0x18 build/Config_2/debug/_ext/1865161661/plib_dmac.o
 .text.DMAC_ChannelSetAddresses
                0x0000000000000000      0x128 build/Config_2/debug/_ext/1865161661/plib_dmac.o
 .text.DMAC_ChannelCallbackRegister
                0x0000000000000000       0x20 build/Config_2/debug/_ext/1865161661/plib_dmac.o
 .text.DMAC_ChannelTransfer
                0x0000000000000000       0xdc build/Config_2/debug/_ext/1865161661/plib_dmac.o
 .text.DMAC_ChainTransferSetup
                0x0000000000000000       0xb0 build/Config_2/debug/_ext/1865161661/plib_dmac.o
 .text.DMAC_ChannelPatternMatchSetup
                0x0000000000000000       0x48 build/Config_2/debug/_ext/1865161661/plib_dmac.o
 .text.DMAC_ChannelPatternMatchDisable
                0x0000000000000000       0x28 build/Config_2/debug/_ext/1865161661/plib_dmac.o
 .text.DMAC_ChannelDisable
                0x0000000000000000       0x48 build/Config_2/debug/_ext/1865161661/plib_dmac.o
 .text.DMAC_ChannelIsBusy
                0x0000000000000000       0x40 build/Config_2/debug/_ext/1865161661/plib_dmac.o
 .text.DMAC_ChannelTransferStatusGet
                0x0000000000000000       0x40 build/Config_2/debug/_ext/1865161661/plib_dmac.o
 .text.DMAC_ChannelCRCSetup
                0x0000000000000000       0x8c build/Config_2/debug/_ext/1865161661/plib_dmac.o
 .text.DMAC_CRCDisable
                0x0000000000000000       0x14 build/Config_2/debug/_ext/1865161661/plib_dmac.o
 .text.DMAC_CRCRead
                0x0000000000000000       0x5c build/Config_2/debug/_ext/1865161661/plib_dmac.o
 .bss.gCRCSetup
                0x0000000000000000       0x14 build/Config_2/debug/_ext/1865161661/plib_dmac.o
 .text          0x0000000000000000        0x0 build/Config_2/debug/_ext/1865200349/plib_evic.o
 .data          0x0000000000000000        0x0 build/Config_2/debug/_ext/1865200349/plib_evic.o
 .bss           0x0000000000000000        0x0 build/Config_2/debug/_ext/1865200349/plib_evic.o
 .reginfo       0x0000000000000000       0x18 build/Config_2/debug/_ext/1865200349/plib_evic.o
 .MIPS.abiflags
                0x0000000000000000       0x18 build/Config_2/debug/_ext/1865200349/plib_evic.o
 .text.EVIC_SourceEnable
                0x0000000000000000       0x28 build/Config_2/debug/_ext/1865200349/plib_evic.o
 .text.EVIC_SourceDisable
                0x0000000000000000       0x28 build/Config_2/debug/_ext/1865200349/plib_evic.o
 .text.EVIC_SourceIsEnabled
                0x0000000000000000       0x20 build/Config_2/debug/_ext/1865200349/plib_evic.o
 .text.EVIC_SourceStatusGet
                0x0000000000000000       0x20 build/Config_2/debug/_ext/1865200349/plib_evic.o
 .text.EVIC_SourceStatusSet
                0x0000000000000000       0x28 build/Config_2/debug/_ext/1865200349/plib_evic.o
 .text.EVIC_SourceStatusClear
                0x0000000000000000       0x28 build/Config_2/debug/_ext/1865200349/plib_evic.o
 .text.EVIC_INT_Enable
                0x0000000000000000       0x18 build/Config_2/debug/_ext/1865200349/plib_evic.o
 .text.EVIC_INT_Disable
                0x0000000000000000       0x20 build/Config_2/debug/_ext/1865200349/plib_evic.o
 .text.EVIC_INT_Restore
                0x0000000000000000       0x28 build/Config_2/debug/_ext/1865200349/plib_evic.o
 .text          0x0000000000000000        0x0 build/Config_2/debug/_ext/1865254177/plib_gpio.o
 .data          0x0000000000000000        0x0 build/Config_2/debug/_ext/1865254177/plib_gpio.o
 .bss           0x0000000000000000        0x0 build/Config_2/debug/_ext/1865254177/plib_gpio.o
 .reginfo       0x0000000000000000       0x18 build/Config_2/debug/_ext/1865254177/plib_gpio.o
 .MIPS.abiflags
                0x0000000000000000       0x18 build/Config_2/debug/_ext/1865254177/plib_gpio.o
 .text.GPIO_PortRead
                0x0000000000000000       0x18 build/Config_2/debug/_ext/1865254177/plib_gpio.o
 .text.GPIO_PortWrite
                0x0000000000000000       0x2c build/Config_2/debug/_ext/1865254177/plib_gpio.o
 .text.GPIO_PortLatchRead
                0x0000000000000000       0x18 build/Config_2/debug/_ext/1865254177/plib_gpio.o
 .text.GPIO_PortSet
                0x0000000000000000       0x1c build/Config_2/debug/_ext/1865254177/plib_gpio.o
 .text.GPIO_PortClear
                0x0000000000000000       0x1c build/Config_2/debug/_ext/1865254177/plib_gpio.o
 .text.GPIO_PortToggle
                0x0000000000000000       0x1c build/Config_2/debug/_ext/1865254177/plib_gpio.o
 .text.GPIO_PortInputEnable
                0x0000000000000000       0x1c build/Config_2/debug/_ext/1865254177/plib_gpio.o
 .text.GPIO_PortOutputEnable
                0x0000000000000000       0x1c build/Config_2/debug/_ext/1865254177/plib_gpio.o
 .text          0x0000000000000000        0x0 build/Config_2/debug/_ext/60181895/plib_tmr2.o
 .data          0x0000000000000000        0x0 build/Config_2/debug/_ext/60181895/plib_tmr2.o
 .bss           0x0000000000000000        0x0 build/Config_2/debug/_ext/60181895/plib_tmr2.o
 .reginfo       0x0000000000000000       0x18 build/Config_2/debug/_ext/60181895/plib_tmr2.o
 .MIPS.abiflags
                0x0000000000000000       0x18 build/Config_2/debug/_ext/60181895/plib_tmr2.o
 .text.TMR2_Stop
                0x0000000000000000       0x14 build/Config_2/debug/_ext/60181895/plib_tmr2.o
 .text.TMR2_PeriodSet
                0x0000000000000000       0x10 build/Config_2/debug/_ext/60181895/plib_tmr2.o
 .text.TMR2_PeriodGet
                0x0000000000000000       0x10 build/Config_2/debug/_ext/60181895/plib_tmr2.o
 .text.TMR2_CounterGet
                0x0000000000000000       0x10 build/Config_2/debug/_ext/60181895/plib_tmr2.o
 .text.TMR2_FrequencyGet
                0x0000000000000000        0xc build/Config_2/debug/_ext/60181895/plib_tmr2.o
 .text.TMR2_InterruptEnable
                0x0000000000000000       0x14 build/Config_2/debug/_ext/60181895/plib_tmr2.o
 .text.TMR2_InterruptDisable
                0x0000000000000000       0x14 build/Config_2/debug/_ext/60181895/plib_tmr2.o
 .text          0x0000000000000000        0x0 build/Config_2/debug/_ext/60181895/plib_tmr4.o
 .data          0x0000000000000000        0x0 build/Config_2/debug/_ext/60181895/plib_tmr4.o
 .bss           0x0000000000000000        0x0 build/Config_2/debug/_ext/60181895/plib_tmr4.o
 .reginfo       0x0000000000000000       0x18 build/Config_2/debug/_ext/60181895/plib_tmr4.o
 .MIPS.abiflags
                0x0000000000000000       0x18 build/Config_2/debug/_ext/60181895/plib_tmr4.o
 .text.TMR4_Stop
                0x0000000000000000       0x14 build/Config_2/debug/_ext/60181895/plib_tmr4.o
 .text.TMR4_PeriodSet
                0x0000000000000000       0x10 build/Config_2/debug/_ext/60181895/plib_tmr4.o
 .text.TMR4_PeriodGet
                0x0000000000000000       0x10 build/Config_2/debug/_ext/60181895/plib_tmr4.o
 .text.TMR4_CounterGet
                0x0000000000000000       0x10 build/Config_2/debug/_ext/60181895/plib_tmr4.o
 .text.TMR4_FrequencyGet
                0x0000000000000000        0xc build/Config_2/debug/_ext/60181895/plib_tmr4.o
 .text.TMR4_InterruptEnable
                0x0000000000000000       0x14 build/Config_2/debug/_ext/60181895/plib_tmr4.o
 .text.TMR4_InterruptDisable
                0x0000000000000000       0x14 build/Config_2/debug/_ext/60181895/plib_tmr4.o
 .text          0x0000000000000000        0x0 build/Config_2/debug/_ext/60181895/plib_tmr3.o
 .data          0x0000000000000000        0x0 build/Config_2/debug/_ext/60181895/plib_tmr3.o
 .bss           0x0000000000000000        0x0 build/Config_2/debug/_ext/60181895/plib_tmr3.o
 .reginfo       0x0000000000000000       0x18 build/Config_2/debug/_ext/60181895/plib_tmr3.o
 .MIPS.abiflags
                0x0000000000000000       0x18 build/Config_2/debug/_ext/60181895/plib_tmr3.o
 .text.TMR3_Stop
                0x0000000000000000       0x14 build/Config_2/debug/_ext/60181895/plib_tmr3.o
 .text.TMR3_PeriodSet
                0x0000000000000000       0x10 build/Config_2/debug/_ext/60181895/plib_tmr3.o
 .text.TMR3_PeriodGet
                0x0000000000000000       0x10 build/Config_2/debug/_ext/60181895/plib_tmr3.o
 .text.TMR3_CounterGet
                0x0000000000000000       0x10 build/Config_2/debug/_ext/60181895/plib_tmr3.o
 .text.TMR3_FrequencyGet
                0x0000000000000000        0xc build/Config_2/debug/_ext/60181895/plib_tmr3.o
 .text.TMR3_InterruptEnable
                0x0000000000000000       0x14 build/Config_2/debug/_ext/60181895/plib_tmr3.o
 .text.TMR3_InterruptDisable
                0x0000000000000000       0x14 build/Config_2/debug/_ext/60181895/plib_tmr3.o
 .text.TMR3_CallbackRegister
                0x0000000000000000       0x14 build/Config_2/debug/_ext/60181895/plib_tmr3.o
 .text          0x0000000000000000        0x0 build/Config_2/debug/_ext/60181895/plib_tmr6.o
 .data          0x0000000000000000        0x0 build/Config_2/debug/_ext/60181895/plib_tmr6.o
 .bss           0x0000000000000000        0x0 build/Config_2/debug/_ext/60181895/plib_tmr6.o
 .reginfo       0x0000000000000000       0x18 build/Config_2/debug/_ext/60181895/plib_tmr6.o
 .MIPS.abiflags
                0x0000000000000000       0x18 build/Config_2/debug/_ext/60181895/plib_tmr6.o
 .text.TMR6_PeriodSet
                0x0000000000000000       0x10 build/Config_2/debug/_ext/60181895/plib_tmr6.o
 .text.TMR6_PeriodGet
                0x0000000000000000       0x10 build/Config_2/debug/_ext/60181895/plib_tmr6.o
 .text.TMR6_CounterGet
                0x0000000000000000       0x10 build/Config_2/debug/_ext/60181895/plib_tmr6.o
 .text.TMR6_FrequencyGet
                0x0000000000000000        0xc build/Config_2/debug/_ext/60181895/plib_tmr6.o
 .text.TMR6_InterruptEnable
                0x0000000000000000       0x14 build/Config_2/debug/_ext/60181895/plib_tmr6.o
 .text.TMR6_InterruptDisable
                0x0000000000000000       0x14 build/Config_2/debug/_ext/60181895/plib_tmr6.o
 .text          0x0000000000000000        0x0 build/Config_2/debug/_ext/60181895/plib_tmr5.o
 .data          0x0000000000000000        0x0 build/Config_2/debug/_ext/60181895/plib_tmr5.o
 .bss           0x0000000000000000        0x0 build/Config_2/debug/_ext/60181895/plib_tmr5.o
 .reginfo       0x0000000000000000       0x18 build/Config_2/debug/_ext/60181895/plib_tmr5.o
 .MIPS.abiflags
                0x0000000000000000       0x18 build/Config_2/debug/_ext/60181895/plib_tmr5.o
 .text.TMR5_PeriodSet
                0x0000000000000000       0x10 build/Config_2/debug/_ext/60181895/plib_tmr5.o
 .text.TMR5_PeriodGet
                0x0000000000000000       0x10 build/Config_2/debug/_ext/60181895/plib_tmr5.o
 .text.TMR5_CounterGet
                0x0000000000000000       0x10 build/Config_2/debug/_ext/60181895/plib_tmr5.o
 .text.TMR5_FrequencyGet
                0x0000000000000000        0xc build/Config_2/debug/_ext/60181895/plib_tmr5.o
 .text.TMR5_InterruptEnable
                0x0000000000000000       0x14 build/Config_2/debug/_ext/60181895/plib_tmr5.o
 .text.TMR5_InterruptDisable
                0x0000000000000000       0x14 build/Config_2/debug/_ext/60181895/plib_tmr5.o
 .text          0x0000000000000000        0x0 build/Config_2/debug/_ext/1865638794/plib_tmr1.o
 .data          0x0000000000000000        0x0 build/Config_2/debug/_ext/1865638794/plib_tmr1.o
 .bss           0x0000000000000000        0x0 build/Config_2/debug/_ext/1865638794/plib_tmr1.o
 .reginfo       0x0000000000000000       0x18 build/Config_2/debug/_ext/1865638794/plib_tmr1.o
 .MIPS.abiflags
                0x0000000000000000       0x18 build/Config_2/debug/_ext/1865638794/plib_tmr1.o
 .text.TMR1_Stop
                0x0000000000000000       0x14 build/Config_2/debug/_ext/1865638794/plib_tmr1.o
 .text.TMR1_PeriodSet
                0x0000000000000000       0x10 build/Config_2/debug/_ext/1865638794/plib_tmr1.o
 .text.TMR1_PeriodGet
                0x0000000000000000       0x10 build/Config_2/debug/_ext/1865638794/plib_tmr1.o
 .text.TMR1_CounterGet
                0x0000000000000000       0x10 build/Config_2/debug/_ext/1865638794/plib_tmr1.o
 .text.TMR1_FrequencyGet
                0x0000000000000000        0xc build/Config_2/debug/_ext/1865638794/plib_tmr1.o
 .text.TMR1_InterruptEnable
                0x0000000000000000       0x14 build/Config_2/debug/_ext/1865638794/plib_tmr1.o
 .text.TMR1_InterruptDisable
                0x0000000000000000       0x14 build/Config_2/debug/_ext/1865638794/plib_tmr1.o
 .text          0x0000000000000000        0x0 build/Config_2/debug/_ext/1865657120/plib_uart1.o
 .data          0x0000000000000000        0x0 build/Config_2/debug/_ext/1865657120/plib_uart1.o
 .bss           0x0000000000000000        0x0 build/Config_2/debug/_ext/1865657120/plib_uart1.o
 .reginfo       0x0000000000000000       0x18 build/Config_2/debug/_ext/1865657120/plib_uart1.o
 .MIPS.abiflags
                0x0000000000000000       0x18 build/Config_2/debug/_ext/1865657120/plib_uart1.o
 .text.UART1_SerialSetup
                0x0000000000000000       0xe8 build/Config_2/debug/_ext/1865657120/plib_uart1.o
 .text.UART1_Write
                0x0000000000000000       0x74 build/Config_2/debug/_ext/1865657120/plib_uart1.o
 .text.UART1_ErrorGet
                0x0000000000000000       0x4c build/Config_2/debug/_ext/1865657120/plib_uart1.o
 .text.UART1_AutoBaudQuery
                0x0000000000000000       0x10 build/Config_2/debug/_ext/1865657120/plib_uart1.o
 .text.UART1_AutoBaudSet
                0x0000000000000000       0x18 build/Config_2/debug/_ext/1865657120/plib_uart1.o
 .text.UART1_WriteByte
                0x0000000000000000       0x20 build/Config_2/debug/_ext/1865657120/plib_uart1.o
 .text.UART1_TransmitterIsReady
                0x0000000000000000       0x14 build/Config_2/debug/_ext/1865657120/plib_uart1.o
 .text.UART1_ReadByte
                0x0000000000000000       0x10 build/Config_2/debug/_ext/1865657120/plib_uart1.o
 .text.UART1_TransmitComplete
                0x0000000000000000       0x10 build/Config_2/debug/_ext/1865657120/plib_uart1.o
 .text          0x0000000000000000        0x0 build/Config_2/debug/_ext/1865657120/plib_uart3.o
 .data          0x0000000000000000        0x0 build/Config_2/debug/_ext/1865657120/plib_uart3.o
 .bss           0x0000000000000000        0x0 build/Config_2/debug/_ext/1865657120/plib_uart3.o
 .reginfo       0x0000000000000000       0x18 build/Config_2/debug/_ext/1865657120/plib_uart3.o
 .MIPS.abiflags
                0x0000000000000000       0x18 build/Config_2/debug/_ext/1865657120/plib_uart3.o
 .text.UART3_SerialSetup
                0x0000000000000000       0xe8 build/Config_2/debug/_ext/1865657120/plib_uart3.o
 .text.UART3_ErrorGet
                0x0000000000000000       0x4c build/Config_2/debug/_ext/1865657120/plib_uart3.o
 .text.UART3_AutoBaudQuery
                0x0000000000000000       0x10 build/Config_2/debug/_ext/1865657120/plib_uart3.o
 .text.UART3_AutoBaudSet
                0x0000000000000000       0x18 build/Config_2/debug/_ext/1865657120/plib_uart3.o
 .text.UART3_WriteByte
                0x0000000000000000       0x20 build/Config_2/debug/_ext/1865657120/plib_uart3.o
 .text.UART3_TransmitterIsReady
                0x0000000000000000       0x14 build/Config_2/debug/_ext/1865657120/plib_uart3.o
 .text.UART3_ReadByte
                0x0000000000000000       0x10 build/Config_2/debug/_ext/1865657120/plib_uart3.o
 .text.UART3_ReceiverIsReady
                0x0000000000000000       0x10 build/Config_2/debug/_ext/1865657120/plib_uart3.o
 .text.UART3_TransmitComplete
                0x0000000000000000       0x10 build/Config_2/debug/_ext/1865657120/plib_uart3.o
 .text          0x0000000000000000        0x0 build/Config_2/debug/_ext/60184501/plib_wdt.o
 .data          0x0000000000000000        0x0 build/Config_2/debug/_ext/60184501/plib_wdt.o
 .bss           0x0000000000000000        0x0 build/Config_2/debug/_ext/60184501/plib_wdt.o
 .reginfo       0x0000000000000000       0x18 build/Config_2/debug/_ext/60184501/plib_wdt.o
 .MIPS.abiflags
                0x0000000000000000       0x18 build/Config_2/debug/_ext/60184501/plib_wdt.o
 .text.WDT_Disable
                0x0000000000000000       0x18 build/Config_2/debug/_ext/60184501/plib_wdt.o
 .text.WDT_IsEnabled
                0x0000000000000000       0x10 build/Config_2/debug/_ext/60184501/plib_wdt.o
 .text.WDT_WindowEnable
                0x0000000000000000       0x1c build/Config_2/debug/_ext/60184501/plib_wdt.o
 .text.WDT_WindowDisable
                0x0000000000000000       0x18 build/Config_2/debug/_ext/60184501/plib_wdt.o
 .text.WDT_IsWindowEnabled
                0x0000000000000000       0x10 build/Config_2/debug/_ext/60184501/plib_wdt.o
 .text          0x0000000000000000        0x0 build/Config_2/debug/_ext/163028504/xc32_monitor.o
 .data          0x0000000000000000        0x0 build/Config_2/debug/_ext/163028504/xc32_monitor.o
 .bss           0x0000000000000000        0x0 build/Config_2/debug/_ext/163028504/xc32_monitor.o
 .reginfo       0x0000000000000000       0x18 build/Config_2/debug/_ext/163028504/xc32_monitor.o
 .MIPS.abiflags
                0x0000000000000000       0x18 build/Config_2/debug/_ext/163028504/xc32_monitor.o
 .text          0x0000000000000000        0x0 build/Config_2/debug/_ext/1171490990/initialization.o
 .data          0x0000000000000000        0x0 build/Config_2/debug/_ext/1171490990/initialization.o
 .bss           0x0000000000000000        0x0 build/Config_2/debug/_ext/1171490990/initialization.o
 .reginfo       0x0000000000000000       0x18 build/Config_2/debug/_ext/1171490990/initialization.o
 .MIPS.abiflags
                0x0000000000000000       0x18 build/Config_2/debug/_ext/1171490990/initialization.o
 .text          0x0000000000000000        0x0 build/Config_2/debug/_ext/1171490990/interrupts.o
 .data          0x0000000000000000        0x0 build/Config_2/debug/_ext/1171490990/interrupts.o
 .bss           0x0000000000000000        0x0 build/Config_2/debug/_ext/1171490990/interrupts.o
 .reginfo       0x0000000000000000       0x18 build/Config_2/debug/_ext/1171490990/interrupts.o
 .MIPS.abiflags
                0x0000000000000000       0x18 build/Config_2/debug/_ext/1171490990/interrupts.o
 .text          0x0000000000000000        0x0 build/Config_2/debug/_ext/1171490990/exceptions.o
 .data          0x0000000000000000        0x0 build/Config_2/debug/_ext/1171490990/exceptions.o
 .bss           0x0000000000000000        0x0 build/Config_2/debug/_ext/1171490990/exceptions.o
 .reginfo       0x0000000000000000       0x18 build/Config_2/debug/_ext/1171490990/exceptions.o
 .MIPS.abiflags
                0x0000000000000000       0x18 build/Config_2/debug/_ext/1171490990/exceptions.o
 .text          0x0000000000000000        0x0 build/Config_2/debug/_ext/1360937237/main.o
 .data          0x0000000000000000        0x0 build/Config_2/debug/_ext/1360937237/main.o
 .bss           0x0000000000000000        0x0 build/Config_2/debug/_ext/1360937237/main.o
 .reginfo       0x0000000000000000       0x18 build/Config_2/debug/_ext/1360937237/main.o
 .MIPS.abiflags
                0x0000000000000000       0x18 build/Config_2/debug/_ext/1360937237/main.o
 .text.millis   0x0000000000000000       0x30 build/Config_2/debug/_ext/1360937237/main.o
 .text.ADCHS_CH9_Callback
                0x0000000000000000        0x8 build/Config_2/debug/_ext/1360937237/main.o
 .text.MeasureCurrent
                0x0000000000000000       0x7c build/Config_2/debug/_ext/1360937237/main.o
 .text.MeasureVoltage
                0x0000000000000000       0x4c build/Config_2/debug/_ext/1360937237/main.o
 .text.MissionEmergencyStop
                0x0000000000000000       0x28 build/Config_2/debug/_ext/1360937237/main.o
 .text.MeasureBrakePressure
                0x0000000000000000       0xa8 build/Config_2/debug/_ext/1360937237/main.o
 .sbss.Motor_Temperature
                0x0000000000000000        0x2 build/Config_2/debug/_ext/1360937237/main.o
 .sbss.Inverter_Temperature
                0x0000000000000000        0x2 build/Config_2/debug/_ext/1360937237/main.o
 .bss.adc       0x0000000000000000       0xc8 build/Config_2/debug/_ext/1360937237/main.o
 .bss.message_ADC
                0x0000000000000000       0x40 build/Config_2/debug/_ext/1360937237/main.o
 .text          0x0000000000000000        0x0 build/Config_2/debug/APPS.o
 .data          0x0000000000000000        0x0 build/Config_2/debug/APPS.o
 .bss           0x0000000000000000        0x0 build/Config_2/debug/APPS.o
 .reginfo       0x0000000000000000       0x18 build/Config_2/debug/APPS.o
 .MIPS.abiflags
                0x0000000000000000       0x18 build/Config_2/debug/APPS.o
 .text.map      0x0000000000000000       0x28 build/Config_2/debug/APPS.o
 .rodata.APPS_PrintValues.str1.4
                0x0000000000000000       0xc4 build/Config_2/debug/APPS.o
 .text.APPS_PrintValues
                0x0000000000000000       0xbc build/Config_2/debug/APPS.o
 .rodata.AUTO_CALIBRATION.str1.4
                0x0000000000000000       0x40 build/Config_2/debug/APPS.o
 .text.AUTO_CALIBRATION
                0x0000000000000000       0x94 build/Config_2/debug/APPS.o
 .sbss.APPS2_MAX.2042
                0x0000000000000000        0x2 build/Config_2/debug/APPS.o
 .sbss.APPS2_MIN.2041
                0x0000000000000000        0x2 build/Config_2/debug/APPS.o
 .sbss.APPS1_MAX.2040
                0x0000000000000000        0x2 build/Config_2/debug/APPS.o
 .sbss.APPS1_MIN.2039
                0x0000000000000000        0x2 build/Config_2/debug/APPS.o
 .sbss.APPS_Tolerance_Volts
                0x0000000000000000        0x4 build/Config_2/debug/APPS.o
 .sbss.APPS_MAX_Volts
                0x0000000000000000        0x4 build/Config_2/debug/APPS.o
 .sbss.APPS_MIN_Volts
                0x0000000000000000        0x4 build/Config_2/debug/APPS.o
 .text          0x0000000000000000        0x0 build/Config_2/debug/CAN_utils.o
 .data          0x0000000000000000        0x0 build/Config_2/debug/CAN_utils.o
 .bss           0x0000000000000000        0x0 build/Config_2/debug/CAN_utils.o
 .reginfo       0x0000000000000000       0x18 build/Config_2/debug/CAN_utils.o
 .MIPS.abiflags
                0x0000000000000000       0x18 build/Config_2/debug/CAN_utils.o
 .text.can_filter_id_bus1
                0x0000000000000000       0x24 build/Config_2/debug/CAN_utils.o
 .text.can_bus_send_HV500_SetBrakeCurrent
                0x0000000000000000       0x48 build/Config_2/debug/CAN_utils.o
 .text.can_bus_send_HV500_SetPosition
                0x0000000000000000       0x48 build/Config_2/debug/CAN_utils.o
 .text.can_bus_send_HV500_SetRelCurrent
                0x0000000000000000       0x48 build/Config_2/debug/CAN_utils.o
 .text.can_bus_send_HV500_SetRelBrakeCurrent
                0x0000000000000000       0x48 build/Config_2/debug/CAN_utils.o
 .text.can_bus_send_HV500_SetMaxAcCurrent
                0x0000000000000000       0x48 build/Config_2/debug/CAN_utils.o
 .text.can_bus_send_HV500_SetMaxAcBrakeCurrent
                0x0000000000000000       0x48 build/Config_2/debug/CAN_utils.o
 .text.can_bus_send_HV500_SetMaxDcCurrent
                0x0000000000000000       0x48 build/Config_2/debug/CAN_utils.o
 .text.can_bus_send_HV500_SetMaxDcBrakeCurrent
                0x0000000000000000       0x48 build/Config_2/debug/CAN_utils.o
 .text.can_open_init
                0x0000000000000000       0x60 build/Config_2/debug/CAN_utils.o
 .text          0x0000000000000000        0x0 build/Config_2/debug/_ext/772537440/cansart.o
 .data          0x0000000000000000        0x0 build/Config_2/debug/_ext/772537440/cansart.o
 .bss           0x0000000000000000        0x0 build/Config_2/debug/_ext/772537440/cansart.o
 .reginfo       0x0000000000000000       0x18 build/Config_2/debug/_ext/772537440/cansart.o
 .MIPS.abiflags
                0x0000000000000000       0x18 build/Config_2/debug/_ext/772537440/cansart.o
 .text.receiveUSART.part.0
                0x0000000000000000       0x68 build/Config_2/debug/_ext/772537440/cansart.o
 .text.transmitMessage
                0x0000000000000000       0xc8 build/Config_2/debug/_ext/772537440/cansart.o
 .text.tx_checksum_calculator
                0x0000000000000000       0x3c build/Config_2/debug/_ext/772537440/cansart.o
 .text.rx_checksum_calculator
                0x0000000000000000       0x50 build/Config_2/debug/_ext/772537440/cansart.o
 .text.convertData
                0x0000000000000000       0xf8 build/Config_2/debug/_ext/772537440/cansart.o
 .text.availableMessage
                0x0000000000000000       0xd8 build/Config_2/debug/_ext/772537440/cansart.o
 .text.receiveUSART
                0x0000000000000000       0x3c build/Config_2/debug/_ext/772537440/cansart.o
 .sbss.checksum
                0x0000000000000000        0x2 build/Config_2/debug/_ext/772537440/cansart.o
 .sbss.rx_CHECKSUM
                0x0000000000000000        0x2 build/Config_2/debug/_ext/772537440/cansart.o
 .sbss.rx_DATA  0x0000000000000000        0x8 build/Config_2/debug/_ext/772537440/cansart.o
 .sbss.rx_LENGHT
                0x0000000000000000        0x1 build/Config_2/debug/_ext/772537440/cansart.o
 .sbss.rx_ID    0x0000000000000000        0x1 build/Config_2/debug/_ext/772537440/cansart.o
 .sbss.rx_COUNTER
                0x0000000000000000        0x1 build/Config_2/debug/_ext/772537440/cansart.o
 .bss.rx_DATA_RAW
                0x0000000000000000       0x30 build/Config_2/debug/_ext/772537440/cansart.o
 .sbss.tx_CHECKSUM
                0x0000000000000000        0x2 build/Config_2/debug/_ext/772537440/cansart.o
 .sbss.tx_DATA  0x0000000000000000        0x8 build/Config_2/debug/_ext/772537440/cansart.o
 .sbss.tx_LENGHT
                0x0000000000000000        0x1 build/Config_2/debug/_ext/772537440/cansart.o
 .sbss.tx_ID    0x0000000000000000        0x1 build/Config_2/debug/_ext/772537440/cansart.o
 .text          0x0000000000000000        0x0 build/Config_2/debug/_ext/772537440/cansartP.o
 .data          0x0000000000000000        0x0 build/Config_2/debug/_ext/772537440/cansartP.o
 .bss           0x0000000000000000        0x0 build/Config_2/debug/_ext/772537440/cansartP.o
 .reginfo       0x0000000000000000       0x18 build/Config_2/debug/_ext/772537440/cansartP.o
 .MIPS.abiflags
                0x0000000000000000       0x18 build/Config_2/debug/_ext/772537440/cansartP.o
 .text.updateDB
                0x0000000000000000      0x258 build/Config_2/debug/_ext/772537440/cansartP.o
 .text.write_slave_DB
                0x0000000000000000       0x94 build/Config_2/debug/_ext/772537440/cansartP.o
 .sdata.startupDB
                0x0000000000000000        0x1 build/Config_2/debug/_ext/772537440/cansartP.o
 .sbss.tx_verify_buffer
                0x0000000000000000        0x8 build/Config_2/debug/_ext/772537440/cansartP.o
 .sbss.temp_ID_B
                0x0000000000000000        0x1 build/Config_2/debug/_ext/772537440/cansartP.o
 .sbss.rx_buffer
                0x0000000000000000        0x8 build/Config_2/debug/_ext/772537440/cansartP.o
 .sdata.BUS_Available_B
                0x0000000000000000        0x1 build/Config_2/debug/_ext/772537440/cansartP.o
 .text          0x0000000000000000        0x0 build/Config_2/debug/TorqueControl.o
 .data          0x0000000000000000        0x0 build/Config_2/debug/TorqueControl.o
 .bss           0x0000000000000000        0x0 build/Config_2/debug/TorqueControl.o
 .reginfo       0x0000000000000000       0x18 build/Config_2/debug/TorqueControl.o
 .MIPS.abiflags
                0x0000000000000000       0x18 build/Config_2/debug/TorqueControl.o
 .text.InitTorqueControl
                0x0000000000000000       0x2c build/Config_2/debug/TorqueControl.o
 .text          0x0000000000000000        0x0 C:\Users\pedro\AppData\Local\Temp\ccPLik8y.o
 .data          0x0000000000000000        0x0 C:\Users\pedro\AppData\Local\Temp\ccPLik8y.o
 .bss           0x0000000000000000        0x0 C:\Users\pedro\AppData\Local\Temp\ccPLik8y.o
 .reginfo       0x0000000000000000       0x18 C:\Users\pedro\AppData\Local\Temp\ccPLik8y.o
 .MIPS.abiflags
                0x0000000000000000       0x18 C:\Users\pedro\AppData\Local\Temp\ccPLik8y.o
 .text          0x0000000000000000        0x0 C:\Users\pedro\AppData\Local\Temp\ccsPnebT.o
 .data          0x0000000000000000        0x0 C:\Users\pedro\AppData\Local\Temp\ccsPnebT.o
 .bss           0x0000000000000000        0x0 C:\Users\pedro\AppData\Local\Temp\ccsPnebT.o
 .reginfo       0x0000000000000000       0x18 C:\Users\pedro\AppData\Local\Temp\ccsPnebT.o
 .MIPS.abiflags
                0x0000000000000000       0x18 C:\Users\pedro\AppData\Local\Temp\ccsPnebT.o
 .text          0x0000000000000000        0x0 C:\Users\pedro\AppData\Local\Temp\ccCDuHJe.o
 .data          0x0000000000000000        0x0 C:\Users\pedro\AppData\Local\Temp\ccCDuHJe.o
 .bss           0x0000000000000000        0x0 C:\Users\pedro\AppData\Local\Temp\ccCDuHJe.o
 .reginfo       0x0000000000000000       0x18 C:\Users\pedro\AppData\Local\Temp\ccCDuHJe.o
 .MIPS.abiflags
                0x0000000000000000       0x18 C:\Users\pedro\AppData\Local\Temp\ccCDuHJe.o
 .text          0x0000000000000000        0x0 C:\Users\pedro\AppData\Local\Temp\cc1EEsTA.o
 .data          0x0000000000000000        0x0 C:\Users\pedro\AppData\Local\Temp\cc1EEsTA.o
 .bss           0x0000000000000000        0x0 C:\Users\pedro\AppData\Local\Temp\cc1EEsTA.o
 .reginfo       0x0000000000000000       0x18 C:\Users\pedro\AppData\Local\Temp\cc1EEsTA.o
 .MIPS.abiflags
                0x0000000000000000       0x18 C:\Users\pedro\AppData\Local\Temp\cc1EEsTA.o
 .discard       0x0000000000000000        0x4 C:\Users\pedro\AppData\Local\Temp\cc1EEsTA.o
 .data          0x0000000000000000        0x0 c:/program files/microchip/xc32/v4.35/bin/bin/../../lib/gcc/pic32mx/8.3.1/../../../../pic32mx/lib/fpu64\pic32_software_reset.o
 .bss           0x0000000000000000        0x0 c:/program files/microchip/xc32/v4.35/bin/bin/../../lib/gcc/pic32mx/8.3.1/../../../../pic32mx/lib/fpu64\pic32_software_reset.o
 .reginfo       0x0000000000000000       0x18 c:/program files/microchip/xc32/v4.35/bin/bin/../../lib/gcc/pic32mx/8.3.1/../../../../pic32mx/lib/fpu64\pic32_software_reset.o
 .MIPS.abiflags
                0x0000000000000000       0x18 c:/program files/microchip/xc32/v4.35/bin/bin/../../lib/gcc/pic32mx/8.3.1/../../../../pic32mx/lib/fpu64\pic32_software_reset.o
 .xc_stack_usage.hdr
                0x0000000000000000        0xe c:/program files/microchip/xc32/v4.35/bin/bin/../../lib/gcc/pic32mx/8.3.1/../../../../pic32mx/lib/fpu64\pic32_software_reset.o
 .xc_stack_usage
                0x0000000000000000       0x24 c:/program files/microchip/xc32/v4.35/bin/bin/../../lib/gcc/pic32mx/8.3.1/../../../../pic32mx/lib/fpu64\pic32_software_reset.o
 .data          0x0000000000000000        0x0 c:/program files/microchip/xc32/v4.35/bin/bin/../../lib/gcc/pic32mx/8.3.1/../../../../pic32mx/lib/fpu64\libpic32.a(memset.o)
 .bss           0x0000000000000000        0x0 c:/program files/microchip/xc32/v4.35/bin/bin/../../lib/gcc/pic32mx/8.3.1/../../../../pic32mx/lib/fpu64\libpic32.a(memset.o)
 .reginfo       0x0000000000000000       0x18 c:/program files/microchip/xc32/v4.35/bin/bin/../../lib/gcc/pic32mx/8.3.1/../../../../pic32mx/lib/fpu64\libpic32.a(memset.o)
 .MIPS.abiflags
                0x0000000000000000       0x18 c:/program files/microchip/xc32/v4.35/bin/bin/../../lib/gcc/pic32mx/8.3.1/../../../../pic32mx/lib/fpu64\libpic32.a(memset.o)
 .xc_stack_usage.hdr
                0x0000000000000000        0xe c:/program files/microchip/xc32/v4.35/bin/bin/../../lib/gcc/pic32mx/8.3.1/../../../../pic32mx/lib/fpu64\libpic32.a(memset.o)
 .xc_stack_usage
                0x0000000000000000       0x14 c:/program files/microchip/xc32/v4.35/bin/bin/../../lib/gcc/pic32mx/8.3.1/../../../../pic32mx/lib/fpu64\libpic32.a(memset.o)
 .text          0x0000000000000000        0x0 c:/program files/microchip/xc32/v4.35/bin/bin/../../lib/gcc/pic32mx/8.3.1/../../../../pic32mx/lib/fpu64\libpic32.a(default-on-reset.o)
 .data          0x0000000000000000        0x0 c:/program files/microchip/xc32/v4.35/bin/bin/../../lib/gcc/pic32mx/8.3.1/../../../../pic32mx/lib/fpu64\libpic32.a(default-on-reset.o)
 .bss           0x0000000000000000        0x0 c:/program files/microchip/xc32/v4.35/bin/bin/../../lib/gcc/pic32mx/8.3.1/../../../../pic32mx/lib/fpu64\libpic32.a(default-on-reset.o)
 .reginfo       0x0000000000000000       0x18 c:/program files/microchip/xc32/v4.35/bin/bin/../../lib/gcc/pic32mx/8.3.1/../../../../pic32mx/lib/fpu64\libpic32.a(default-on-reset.o)
 .MIPS.abiflags
                0x0000000000000000       0x18 c:/program files/microchip/xc32/v4.35/bin/bin/../../lib/gcc/pic32mx/8.3.1/../../../../pic32mx/lib/fpu64\libpic32.a(default-on-reset.o)
 .xc_stack_usage
                0x0000000000000000       0x17 c:/program files/microchip/xc32/v4.35/bin/bin/../../lib/gcc/pic32mx/8.3.1/../../../../pic32mx/lib/fpu64\libpic32.a(default-on-reset.o)
 .xc_stack_usage.hdr
                0x0000000000000000        0xe c:/program files/microchip/xc32/v4.35/bin/bin/../../lib/gcc/pic32mx/8.3.1/../../../../pic32mx/lib/fpu64\libpic32.a(default-on-reset.o)
 .text          0x0000000000000000        0x0 c:/program files/microchip/xc32/v4.35/bin/bin/../../lib/gcc/pic32mx/8.3.1/../../../../pic32mx/lib/fpu64\libpic32.a(default-on-bootstrap.o)
 .data          0x0000000000000000        0x0 c:/program files/microchip/xc32/v4.35/bin/bin/../../lib/gcc/pic32mx/8.3.1/../../../../pic32mx/lib/fpu64\libpic32.a(default-on-bootstrap.o)
 .bss           0x0000000000000000        0x0 c:/program files/microchip/xc32/v4.35/bin/bin/../../lib/gcc/pic32mx/8.3.1/../../../../pic32mx/lib/fpu64\libpic32.a(default-on-bootstrap.o)
 .reginfo       0x0000000000000000       0x18 c:/program files/microchip/xc32/v4.35/bin/bin/../../lib/gcc/pic32mx/8.3.1/../../../../pic32mx/lib/fpu64\libpic32.a(default-on-bootstrap.o)
 .MIPS.abiflags
                0x0000000000000000       0x18 c:/program files/microchip/xc32/v4.35/bin/bin/../../lib/gcc/pic32mx/8.3.1/../../../../pic32mx/lib/fpu64\libpic32.a(default-on-bootstrap.o)
 .xc_stack_usage
                0x0000000000000000       0x1b c:/program files/microchip/xc32/v4.35/bin/bin/../../lib/gcc/pic32mx/8.3.1/../../../../pic32mx/lib/fpu64\libpic32.a(default-on-bootstrap.o)
 .xc_stack_usage.hdr
                0x0000000000000000        0xe c:/program files/microchip/xc32/v4.35/bin/bin/../../lib/gcc/pic32mx/8.3.1/../../../../pic32mx/lib/fpu64\libpic32.a(default-on-bootstrap.o)
 .data          0x0000000000000000        0x0 c:/program files/microchip/xc32/v4.35/bin/bin/../../lib/gcc/pic32mx/8.3.1/../../../../pic32mx/lib/fpu64\libpic32.a(default-nmi-handler.o)
 .bss           0x0000000000000000        0x0 c:/program files/microchip/xc32/v4.35/bin/bin/../../lib/gcc/pic32mx/8.3.1/../../../../pic32mx/lib/fpu64\libpic32.a(default-nmi-handler.o)
 .reginfo       0x0000000000000000       0x18 c:/program files/microchip/xc32/v4.35/bin/bin/../../lib/gcc/pic32mx/8.3.1/../../../../pic32mx/lib/fpu64\libpic32.a(default-nmi-handler.o)
 .MIPS.abiflags
                0x0000000000000000       0x18 c:/program files/microchip/xc32/v4.35/bin/bin/../../lib/gcc/pic32mx/8.3.1/../../../../pic32mx/lib/fpu64\libpic32.a(default-nmi-handler.o)
 .xc_stack_usage.hdr
                0x0000000000000000        0xe c:/program files/microchip/xc32/v4.35/bin/bin/../../lib/gcc/pic32mx/8.3.1/../../../../pic32mx/lib/fpu64\libpic32.a(default-nmi-handler.o)
 .xc_stack_usage
                0x0000000000000000       0x1a c:/program files/microchip/xc32/v4.35/bin/bin/../../lib/gcc/pic32mx/8.3.1/../../../../pic32mx/lib/fpu64\libpic32.a(default-nmi-handler.o)
 .data          0x0000000000000000        0x0 c:/program files/microchip/xc32/v4.35/bin/bin/../../lib/gcc/pic32mx/8.3.1/../../../../pic32mx/lib/fpu64\libpic32.a(pic32_data_init_core.o)
 .bss           0x0000000000000000        0x0 c:/program files/microchip/xc32/v4.35/bin/bin/../../lib/gcc/pic32mx/8.3.1/../../../../pic32mx/lib/fpu64\libpic32.a(pic32_data_init_core.o)
 .reginfo       0x0000000000000000       0x18 c:/program files/microchip/xc32/v4.35/bin/bin/../../lib/gcc/pic32mx/8.3.1/../../../../pic32mx/lib/fpu64\libpic32.a(pic32_data_init_core.o)
 .MIPS.abiflags
                0x0000000000000000       0x18 c:/program files/microchip/xc32/v4.35/bin/bin/../../lib/gcc/pic32mx/8.3.1/../../../../pic32mx/lib/fpu64\libpic32.a(pic32_data_init_core.o)
 .xc_stack_usage.hdr
                0x0000000000000000        0xe c:/program files/microchip/xc32/v4.35/bin/bin/../../lib/gcc/pic32mx/8.3.1/../../../../pic32mx/lib/fpu64\libpic32.a(pic32_data_init_core.o)
 .xc_stack_usage
                0x0000000000000000       0x41 c:/program files/microchip/xc32/v4.35/bin/bin/../../lib/gcc/pic32mx/8.3.1/../../../../pic32mx/lib/fpu64\libpic32.a(pic32_data_init_core.o)
 .text          0x0000000000000000        0x0 c:/program files/microchip/xc32/v4.35/bin/bin/../../lib/gcc/pic32mx/8.3.1/../../../../pic32mx/lib/fpu64\libpic32.a(general-exception.o)
 .data          0x0000000000000000        0x0 c:/program files/microchip/xc32/v4.35/bin/bin/../../lib/gcc/pic32mx/8.3.1/../../../../pic32mx/lib/fpu64\libpic32.a(general-exception.o)
 .bss           0x0000000000000000        0x0 c:/program files/microchip/xc32/v4.35/bin/bin/../../lib/gcc/pic32mx/8.3.1/../../../../pic32mx/lib/fpu64\libpic32.a(general-exception.o)
 .reginfo       0x0000000000000000       0x18 c:/program files/microchip/xc32/v4.35/bin/bin/../../lib/gcc/pic32mx/8.3.1/../../../../pic32mx/lib/fpu64\libpic32.a(general-exception.o)
 .MIPS.abiflags
                0x0000000000000000       0x18 c:/program files/microchip/xc32/v4.35/bin/bin/../../lib/gcc/pic32mx/8.3.1/../../../../pic32mx/lib/fpu64\libpic32.a(general-exception.o)
 .xc_stack_usage.hdr
                0x0000000000000000        0xe c:/program files/microchip/xc32/v4.35/bin/bin/../../lib/gcc/pic32mx/8.3.1/../../../../pic32mx/lib/fpu64\libpic32.a(general-exception.o)
 .xc_stack_usage
                0x0000000000000000       0x28 c:/program files/microchip/xc32/v4.35/bin/bin/../../lib/gcc/pic32mx/8.3.1/../../../../pic32mx/lib/fpu64\libpic32.a(general-exception.o)
 .text          0x0000000000000000        0x0 c:/program files/microchip/xc32/v4.35/bin/bin/../../lib/gcc/pic32mx/8.3.1/../../../../pic32mx/lib/fpu64\libpic32.a(defaultinterrupt.o)
 .data          0x0000000000000000        0x0 c:/program files/microchip/xc32/v4.35/bin/bin/../../lib/gcc/pic32mx/8.3.1/../../../../pic32mx/lib/fpu64\libpic32.a(defaultinterrupt.o)
 .bss           0x0000000000000000        0x0 c:/program files/microchip/xc32/v4.35/bin/bin/../../lib/gcc/pic32mx/8.3.1/../../../../pic32mx/lib/fpu64\libpic32.a(defaultinterrupt.o)
 .reginfo       0x0000000000000000       0x18 c:/program files/microchip/xc32/v4.35/bin/bin/../../lib/gcc/pic32mx/8.3.1/../../../../pic32mx/lib/fpu64\libpic32.a(defaultinterrupt.o)
 .MIPS.abiflags
                0x0000000000000000       0x18 c:/program files/microchip/xc32/v4.35/bin/bin/../../lib/gcc/pic32mx/8.3.1/../../../../pic32mx/lib/fpu64\libpic32.a(defaultinterrupt.o)
 .xc_stack_usage
                0x0000000000000000       0x1f c:/program files/microchip/xc32/v4.35/bin/bin/../../lib/gcc/pic32mx/8.3.1/../../../../pic32mx/lib/fpu64\libpic32.a(defaultinterrupt.o)
 .xc_stack_usage.hdr
                0x0000000000000000        0xe c:/program files/microchip/xc32/v4.35/bin/bin/../../lib/gcc/pic32mx/8.3.1/../../../../pic32mx/lib/fpu64\libpic32.a(defaultinterrupt.o)
 .text          0x0000000000000000        0x0 c:/program files/microchip/xc32/v4.35/bin/bin/../../lib/gcc/pic32mx/8.3.1/../../../../pic32mx/lib/fpu64\libc-musl.a(__sio_printf_dn.o)
 .data          0x0000000000000000        0x0 c:/program files/microchip/xc32/v4.35/bin/bin/../../lib/gcc/pic32mx/8.3.1/../../../../pic32mx/lib/fpu64\libc-musl.a(__sio_printf_dn.o)
 .bss           0x0000000000000000        0x0 c:/program files/microchip/xc32/v4.35/bin/bin/../../lib/gcc/pic32mx/8.3.1/../../../../pic32mx/lib/fpu64\libc-musl.a(__sio_printf_dn.o)
 .reginfo       0x0000000000000000       0x18 c:/program files/microchip/xc32/v4.35/bin/bin/../../lib/gcc/pic32mx/8.3.1/../../../../pic32mx/lib/fpu64\libc-musl.a(__sio_printf_dn.o)
 .MIPS.abiflags
                0x0000000000000000       0x18 c:/program files/microchip/xc32/v4.35/bin/bin/../../lib/gcc/pic32mx/8.3.1/../../../../pic32mx/lib/fpu64\libc-musl.a(__sio_printf_dn.o)
 .xc_stack_usage
                0x0000000000000000       0x38 c:/program files/microchip/xc32/v4.35/bin/bin/../../lib/gcc/pic32mx/8.3.1/../../../../pic32mx/lib/fpu64\libc-musl.a(__sio_printf_dn.o)
 .text.__sio_printf_dn
                0x0000000000000000       0x2c c:/program files/microchip/xc32/v4.35/bin/bin/../../lib/gcc/pic32mx/8.3.1/../../../../pic32mx/lib/fpu64\libc-musl.a(__sio_printf_dn.o)
 .xc_stack_usage.hdr
                0x0000000000000000        0xe c:/program files/microchip/xc32/v4.35/bin/bin/../../lib/gcc/pic32mx/8.3.1/../../../../pic32mx/lib/fpu64\libc-musl.a(__sio_printf_dn.o)
 .note.GNU-stack
                0x0000000000000000        0x0 c:/program files/microchip/xc32/v4.35/bin/bin/../../lib/gcc/pic32mx/8.3.1/../../../../pic32mx/lib/fpu64\libc-musl.a(__sio_printf_dn.o)
 .text          0x0000000000000000        0x0 c:/program files/microchip/xc32/v4.35/bin/bin/../../lib/gcc/pic32mx/8.3.1/../../../../pic32mx/lib/fpu64\libc-musl.a(__fmt_d.o)
 .data          0x0000000000000000        0x0 c:/program files/microchip/xc32/v4.35/bin/bin/../../lib/gcc/pic32mx/8.3.1/../../../../pic32mx/lib/fpu64\libc-musl.a(__fmt_d.o)
 .bss           0x0000000000000000        0x0 c:/program files/microchip/xc32/v4.35/bin/bin/../../lib/gcc/pic32mx/8.3.1/../../../../pic32mx/lib/fpu64\libc-musl.a(__fmt_d.o)
 .reginfo       0x0000000000000000       0x18 c:/program files/microchip/xc32/v4.35/bin/bin/../../lib/gcc/pic32mx/8.3.1/../../../../pic32mx/lib/fpu64\libc-musl.a(__fmt_d.o)
 .MIPS.abiflags
                0x0000000000000000       0x18 c:/program files/microchip/xc32/v4.35/bin/bin/../../lib/gcc/pic32mx/8.3.1/../../../../pic32mx/lib/fpu64\libc-musl.a(__fmt_d.o)
 .xc_stack_usage
                0x0000000000000000       0x15 c:/program files/microchip/xc32/v4.35/bin/bin/../../lib/gcc/pic32mx/8.3.1/../../../../pic32mx/lib/fpu64\libc-musl.a(__fmt_d.o)
 .xc_stack_usage.hdr
                0x0000000000000000        0xe c:/program files/microchip/xc32/v4.35/bin/bin/../../lib/gcc/pic32mx/8.3.1/../../../../pic32mx/lib/fpu64\libc-musl.a(__fmt_d.o)
 .note.GNU-stack
                0x0000000000000000        0x0 c:/program files/microchip/xc32/v4.35/bin/bin/../../lib/gcc/pic32mx/8.3.1/../../../../pic32mx/lib/fpu64\libc-musl.a(__fmt_d.o)
 .text          0x0000000000000000        0x0 c:/program files/microchip/xc32/v4.35/bin/bin/../../lib/gcc/pic32mx/8.3.1/../../../../pic32mx/lib/fpu64\libc-musl.a(__pop_int.o)
 .data          0x0000000000000000        0x0 c:/program files/microchip/xc32/v4.35/bin/bin/../../lib/gcc/pic32mx/8.3.1/../../../../pic32mx/lib/fpu64\libc-musl.a(__pop_int.o)
 .bss           0x0000000000000000        0x0 c:/program files/microchip/xc32/v4.35/bin/bin/../../lib/gcc/pic32mx/8.3.1/../../../../pic32mx/lib/fpu64\libc-musl.a(__pop_int.o)
 .reginfo       0x0000000000000000       0x18 c:/program files/microchip/xc32/v4.35/bin/bin/../../lib/gcc/pic32mx/8.3.1/../../../../pic32mx/lib/fpu64\libc-musl.a(__pop_int.o)
 .MIPS.abiflags
                0x0000000000000000       0x18 c:/program files/microchip/xc32/v4.35/bin/bin/../../lib/gcc/pic32mx/8.3.1/../../../../pic32mx/lib/fpu64\libc-musl.a(__pop_int.o)
 .xc_stack_usage
                0x0000000000000000       0x17 c:/program files/microchip/xc32/v4.35/bin/bin/../../lib/gcc/pic32mx/8.3.1/../../../../pic32mx/lib/fpu64\libc-musl.a(__pop_int.o)
 .xc_stack_usage.hdr
                0x0000000000000000        0xe c:/program files/microchip/xc32/v4.35/bin/bin/../../lib/gcc/pic32mx/8.3.1/../../../../pic32mx/lib/fpu64\libc-musl.a(__pop_int.o)
 .note.GNU-stack
                0x0000000000000000        0x0 c:/program files/microchip/xc32/v4.35/bin/bin/../../lib/gcc/pic32mx/8.3.1/../../../../pic32mx/lib/fpu64\libc-musl.a(__pop_int.o)
 .text          0x0000000000000000        0x0 c:/program files/microchip/xc32/v4.35/bin/bin/../../lib/gcc/pic32mx/8.3.1/../../../../pic32mx/lib/fpu64\libc-musl.a(__pop_ptr.o)
 .data          0x0000000000000000        0x0 c:/program files/microchip/xc32/v4.35/bin/bin/../../lib/gcc/pic32mx/8.3.1/../../../../pic32mx/lib/fpu64\libc-musl.a(__pop_ptr.o)
 .bss           0x0000000000000000        0x0 c:/program files/microchip/xc32/v4.35/bin/bin/../../lib/gcc/pic32mx/8.3.1/../../../../pic32mx/lib/fpu64\libc-musl.a(__pop_ptr.o)
 .reginfo       0x0000000000000000       0x18 c:/program files/microchip/xc32/v4.35/bin/bin/../../lib/gcc/pic32mx/8.3.1/../../../../pic32mx/lib/fpu64\libc-musl.a(__pop_ptr.o)
 .MIPS.abiflags
                0x0000000000000000       0x18 c:/program files/microchip/xc32/v4.35/bin/bin/../../lib/gcc/pic32mx/8.3.1/../../../../pic32mx/lib/fpu64\libc-musl.a(__pop_ptr.o)
 .xc_stack_usage
                0x0000000000000000       0x17 c:/program files/microchip/xc32/v4.35/bin/bin/../../lib/gcc/pic32mx/8.3.1/../../../../pic32mx/lib/fpu64\libc-musl.a(__pop_ptr.o)
 .xc_stack_usage.hdr
                0x0000000000000000        0xe c:/program files/microchip/xc32/v4.35/bin/bin/../../lib/gcc/pic32mx/8.3.1/../../../../pic32mx/lib/fpu64\libc-musl.a(__pop_ptr.o)
 .note.GNU-stack
                0x0000000000000000        0x0 c:/program files/microchip/xc32/v4.35/bin/bin/../../lib/gcc/pic32mx/8.3.1/../../../../pic32mx/lib/fpu64\libc-musl.a(__pop_ptr.o)
 .text          0x0000000000000000        0x0 c:/program files/microchip/xc32/v4.35/bin/bin/../../lib/gcc/pic32mx/8.3.1/../../../../pic32mx/lib/fpu64\libc-musl.a(__printf_core.o)
 .data          0x0000000000000000        0x0 c:/program files/microchip/xc32/v4.35/bin/bin/../../lib/gcc/pic32mx/8.3.1/../../../../pic32mx/lib/fpu64\libc-musl.a(__printf_core.o)
 .bss           0x0000000000000000        0x0 c:/program files/microchip/xc32/v4.35/bin/bin/../../lib/gcc/pic32mx/8.3.1/../../../../pic32mx/lib/fpu64\libc-musl.a(__printf_core.o)
 .reginfo       0x0000000000000000       0x18 c:/program files/microchip/xc32/v4.35/bin/bin/../../lib/gcc/pic32mx/8.3.1/../../../../pic32mx/lib/fpu64\libc-musl.a(__printf_core.o)
 .MIPS.abiflags
                0x0000000000000000       0x18 c:/program files/microchip/xc32/v4.35/bin/bin/../../lib/gcc/pic32mx/8.3.1/../../../../pic32mx/lib/fpu64\libc-musl.a(__printf_core.o)
 .xc_stack_usage
                0x0000000000000000       0xaf c:/program files/microchip/xc32/v4.35/bin/bin/../../lib/gcc/pic32mx/8.3.1/../../../../pic32mx/lib/fpu64\libc-musl.a(__printf_core.o)
 .text.__string_out
                0x0000000000000000       0x5c c:/program files/microchip/xc32/v4.35/bin/bin/../../lib/gcc/pic32mx/8.3.1/../../../../pic32mx/lib/fpu64\libc-musl.a(__printf_core.o)
 .xc_stack_usage.hdr
                0x0000000000000000        0xe c:/program files/microchip/xc32/v4.35/bin/bin/../../lib/gcc/pic32mx/8.3.1/../../../../pic32mx/lib/fpu64\libc-musl.a(__printf_core.o)
 .note.GNU-stack
                0x0000000000000000        0x0 c:/program files/microchip/xc32/v4.35/bin/bin/../../lib/gcc/pic32mx/8.3.1/../../../../pic32mx/lib/fpu64\libc-musl.a(__printf_core.o)
 .text          0x0000000000000000        0x0 c:/program files/microchip/xc32/v4.35/bin/bin/../../lib/gcc/pic32mx/8.3.1/../../../../pic32mx/lib/fpu64\libc-musl.a(fflush.o)
 .data          0x0000000000000000        0x0 c:/program files/microchip/xc32/v4.35/bin/bin/../../lib/gcc/pic32mx/8.3.1/../../../../pic32mx/lib/fpu64\libc-musl.a(fflush.o)
 .bss           0x0000000000000000        0x4 c:/program files/microchip/xc32/v4.35/bin/bin/../../lib/gcc/pic32mx/8.3.1/../../../../pic32mx/lib/fpu64\libc-musl.a(fflush.o)
 .reginfo       0x0000000000000000       0x18 c:/program files/microchip/xc32/v4.35/bin/bin/../../lib/gcc/pic32mx/8.3.1/../../../../pic32mx/lib/fpu64\libc-musl.a(fflush.o)
 .MIPS.abiflags
                0x0000000000000000       0x18 c:/program files/microchip/xc32/v4.35/bin/bin/../../lib/gcc/pic32mx/8.3.1/../../../../pic32mx/lib/fpu64\libc-musl.a(fflush.o)
 .xc_stack_usage
                0x0000000000000000       0x40 c:/program files/microchip/xc32/v4.35/bin/bin/../../lib/gcc/pic32mx/8.3.1/../../../../pic32mx/lib/fpu64\libc-musl.a(fflush.o)
 .text.__dummy2
                0x0000000000000000        0x8 c:/program files/microchip/xc32/v4.35/bin/bin/../../lib/gcc/pic32mx/8.3.1/../../../../pic32mx/lib/fpu64\libc-musl.a(fflush.o)
 .xc_stack_usage.hdr
                0x0000000000000000        0xe c:/program files/microchip/xc32/v4.35/bin/bin/../../lib/gcc/pic32mx/8.3.1/../../../../pic32mx/lib/fpu64\libc-musl.a(fflush.o)
 .note.GNU-stack
                0x0000000000000000        0x0 c:/program files/microchip/xc32/v4.35/bin/bin/../../lib/gcc/pic32mx/8.3.1/../../../../pic32mx/lib/fpu64\libc-musl.a(fflush.o)
 .text          0x0000000000000000        0x0 c:/program files/microchip/xc32/v4.35/bin/bin/../../lib/gcc/pic32mx/8.3.1/../../../../pic32mx/lib/fpu64\libc-musl.a(stdin.o)
 .reginfo       0x0000000000000000       0x18 c:/program files/microchip/xc32/v4.35/bin/bin/../../lib/gcc/pic32mx/8.3.1/../../../../pic32mx/lib/fpu64\libc-musl.a(stdin.o)
 .MIPS.abiflags
                0x0000000000000000       0x18 c:/program files/microchip/xc32/v4.35/bin/bin/../../lib/gcc/pic32mx/8.3.1/../../../../pic32mx/lib/fpu64\libc-musl.a(stdin.o)
 .xc_stack_usage
                0x0000000000000000       0x33 c:/program files/microchip/xc32/v4.35/bin/bin/../../lib/gcc/pic32mx/8.3.1/../../../../pic32mx/lib/fpu64\libc-musl.a(stdin.o)
 .xc_stack_usage.hdr
                0x0000000000000000        0xe c:/program files/microchip/xc32/v4.35/bin/bin/../../lib/gcc/pic32mx/8.3.1/../../../../pic32mx/lib/fpu64\libc-musl.a(stdin.o)
 .note.GNU-stack
                0x0000000000000000        0x0 c:/program files/microchip/xc32/v4.35/bin/bin/../../lib/gcc/pic32mx/8.3.1/../../../../pic32mx/lib/fpu64\libc-musl.a(stdin.o)
 .text          0x0000000000000000        0x0 c:/program files/microchip/xc32/v4.35/bin/bin/../../lib/gcc/pic32mx/8.3.1/../../../../pic32mx/lib/fpu64\libc-musl.a(stdout.o)
 .bss           0x0000000000000000        0x0 c:/program files/microchip/xc32/v4.35/bin/bin/../../lib/gcc/pic32mx/8.3.1/../../../../pic32mx/lib/fpu64\libc-musl.a(stdout.o)
 .reginfo       0x0000000000000000       0x18 c:/program files/microchip/xc32/v4.35/bin/bin/../../lib/gcc/pic32mx/8.3.1/../../../../pic32mx/lib/fpu64\libc-musl.a(stdout.o)
 .MIPS.abiflags
                0x0000000000000000       0x18 c:/program files/microchip/xc32/v4.35/bin/bin/../../lib/gcc/pic32mx/8.3.1/../../../../pic32mx/lib/fpu64\libc-musl.a(stdout.o)
 .xc_stack_usage
                0x0000000000000000       0x51 c:/program files/microchip/xc32/v4.35/bin/bin/../../lib/gcc/pic32mx/8.3.1/../../../../pic32mx/lib/fpu64\libc-musl.a(stdout.o)
 .text.__init_stdout
                0x0000000000000000       0x20 c:/program files/microchip/xc32/v4.35/bin/bin/../../lib/gcc/pic32mx/8.3.1/../../../../pic32mx/lib/fpu64\libc-musl.a(stdout.o)
 .xc_stack_usage.hdr
                0x0000000000000000        0xe c:/program files/microchip/xc32/v4.35/bin/bin/../../lib/gcc/pic32mx/8.3.1/../../../../pic32mx/lib/fpu64\libc-musl.a(stdout.o)
 .note.GNU-stack
                0x0000000000000000        0x0 c:/program files/microchip/xc32/v4.35/bin/bin/../../lib/gcc/pic32mx/8.3.1/../../../../pic32mx/lib/fpu64\libc-musl.a(stdout.o)
 .text          0x0000000000000000        0x0 c:/program files/microchip/xc32/v4.35/bin/bin/../../lib/gcc/pic32mx/8.3.1/../../../../pic32mx/lib/fpu64\libc-musl.a(puts.o)
 .data          0x0000000000000000        0x0 c:/program files/microchip/xc32/v4.35/bin/bin/../../lib/gcc/pic32mx/8.3.1/../../../../pic32mx/lib/fpu64\libc-musl.a(puts.o)
 .bss           0x0000000000000000        0x0 c:/program files/microchip/xc32/v4.35/bin/bin/../../lib/gcc/pic32mx/8.3.1/../../../../pic32mx/lib/fpu64\libc-musl.a(puts.o)
 .reginfo       0x0000000000000000       0x18 c:/program files/microchip/xc32/v4.35/bin/bin/../../lib/gcc/pic32mx/8.3.1/../../../../pic32mx/lib/fpu64\libc-musl.a(puts.o)
 .MIPS.abiflags
                0x0000000000000000       0x18 c:/program files/microchip/xc32/v4.35/bin/bin/../../lib/gcc/pic32mx/8.3.1/../../../../pic32mx/lib/fpu64\libc-musl.a(puts.o)
 .xc_stack_usage
                0x0000000000000000       0x12 c:/program files/microchip/xc32/v4.35/bin/bin/../../lib/gcc/pic32mx/8.3.1/../../../../pic32mx/lib/fpu64\libc-musl.a(puts.o)
 .xc_stack_usage.hdr
                0x0000000000000000        0xe c:/program files/microchip/xc32/v4.35/bin/bin/../../lib/gcc/pic32mx/8.3.1/../../../../pic32mx/lib/fpu64\libc-musl.a(puts.o)
 .note.GNU-stack
                0x0000000000000000        0x0 c:/program files/microchip/xc32/v4.35/bin/bin/../../lib/gcc/pic32mx/8.3.1/../../../../pic32mx/lib/fpu64\libc-musl.a(puts.o)
 .text          0x0000000000000000        0x0 c:/program files/microchip/xc32/v4.35/bin/bin/../../lib/gcc/pic32mx/8.3.1/../../../../pic32mx/lib/fpu64\libc-musl.a(setbuf.o)
 .data          0x0000000000000000        0x0 c:/program files/microchip/xc32/v4.35/bin/bin/../../lib/gcc/pic32mx/8.3.1/../../../../pic32mx/lib/fpu64\libc-musl.a(setbuf.o)
 .bss           0x0000000000000000        0x0 c:/program files/microchip/xc32/v4.35/bin/bin/../../lib/gcc/pic32mx/8.3.1/../../../../pic32mx/lib/fpu64\libc-musl.a(setbuf.o)
 .reginfo       0x0000000000000000       0x18 c:/program files/microchip/xc32/v4.35/bin/bin/../../lib/gcc/pic32mx/8.3.1/../../../../pic32mx/lib/fpu64\libc-musl.a(setbuf.o)
 .MIPS.abiflags
                0x0000000000000000       0x18 c:/program files/microchip/xc32/v4.35/bin/bin/../../lib/gcc/pic32mx/8.3.1/../../../../pic32mx/lib/fpu64\libc-musl.a(setbuf.o)
 .xc_stack_usage
                0x0000000000000000       0x14 c:/program files/microchip/xc32/v4.35/bin/bin/../../lib/gcc/pic32mx/8.3.1/../../../../pic32mx/lib/fpu64\libc-musl.a(setbuf.o)
 .xc_stack_usage.hdr
                0x0000000000000000        0xe c:/program files/microchip/xc32/v4.35/bin/bin/../../lib/gcc/pic32mx/8.3.1/../../../../pic32mx/lib/fpu64\libc-musl.a(setbuf.o)
 .note.GNU-stack
                0x0000000000000000        0x0 c:/program files/microchip/xc32/v4.35/bin/bin/../../lib/gcc/pic32mx/8.3.1/../../../../pic32mx/lib/fpu64\libc-musl.a(setbuf.o)
 .text          0x0000000000000000        0x0 c:/program files/microchip/xc32/v4.35/bin/bin/../../lib/gcc/pic32mx/8.3.1/../../../../pic32mx/lib/fpu64\libc-musl.a(atoi.o)
 .data          0x0000000000000000        0x0 c:/program files/microchip/xc32/v4.35/bin/bin/../../lib/gcc/pic32mx/8.3.1/../../../../pic32mx/lib/fpu64\libc-musl.a(atoi.o)
 .bss           0x0000000000000000        0x0 c:/program files/microchip/xc32/v4.35/bin/bin/../../lib/gcc/pic32mx/8.3.1/../../../../pic32mx/lib/fpu64\libc-musl.a(atoi.o)
 .reginfo       0x0000000000000000       0x18 c:/program files/microchip/xc32/v4.35/bin/bin/../../lib/gcc/pic32mx/8.3.1/../../../../pic32mx/lib/fpu64\libc-musl.a(atoi.o)
 .MIPS.abiflags
                0x0000000000000000       0x18 c:/program files/microchip/xc32/v4.35/bin/bin/../../lib/gcc/pic32mx/8.3.1/../../../../pic32mx/lib/fpu64\libc-musl.a(atoi.o)
 .xc_stack_usage
                0x0000000000000000       0x12 c:/program files/microchip/xc32/v4.35/bin/bin/../../lib/gcc/pic32mx/8.3.1/../../../../pic32mx/lib/fpu64\libc-musl.a(atoi.o)
 .xc_stack_usage.hdr
                0x0000000000000000        0xe c:/program files/microchip/xc32/v4.35/bin/bin/../../lib/gcc/pic32mx/8.3.1/../../../../pic32mx/lib/fpu64\libc-musl.a(atoi.o)
 .note.GNU-stack
                0x0000000000000000        0x0 c:/program files/microchip/xc32/v4.35/bin/bin/../../lib/gcc/pic32mx/8.3.1/../../../../pic32mx/lib/fpu64\libc-musl.a(atoi.o)
 .text          0x0000000000000000        0x0 c:/program files/microchip/xc32/v4.35/bin/bin/../../lib/gcc/pic32mx/8.3.1/../../../../pic32mx/lib/fpu64\libc-musl.a(memcpy.o)
 .data          0x0000000000000000        0x0 c:/program files/microchip/xc32/v4.35/bin/bin/../../lib/gcc/pic32mx/8.3.1/../../../../pic32mx/lib/fpu64\libc-musl.a(memcpy.o)
 .bss           0x0000000000000000        0x0 c:/program files/microchip/xc32/v4.35/bin/bin/../../lib/gcc/pic32mx/8.3.1/../../../../pic32mx/lib/fpu64\libc-musl.a(memcpy.o)
 .reginfo       0x0000000000000000       0x18 c:/program files/microchip/xc32/v4.35/bin/bin/../../lib/gcc/pic32mx/8.3.1/../../../../pic32mx/lib/fpu64\libc-musl.a(memcpy.o)
 .MIPS.abiflags
                0x0000000000000000       0x18 c:/program files/microchip/xc32/v4.35/bin/bin/../../lib/gcc/pic32mx/8.3.1/../../../../pic32mx/lib/fpu64\libc-musl.a(memcpy.o)
 .xc_stack_usage
                0x0000000000000000       0x14 c:/program files/microchip/xc32/v4.35/bin/bin/../../lib/gcc/pic32mx/8.3.1/../../../../pic32mx/lib/fpu64\libc-musl.a(memcpy.o)
 .xc_stack_usage.hdr
                0x0000000000000000        0xe c:/program files/microchip/xc32/v4.35/bin/bin/../../lib/gcc/pic32mx/8.3.1/../../../../pic32mx/lib/fpu64\libc-musl.a(memcpy.o)
 .note.GNU-stack
                0x0000000000000000        0x0 c:/program files/microchip/xc32/v4.35/bin/bin/../../lib/gcc/pic32mx/8.3.1/../../../../pic32mx/lib/fpu64\libc-musl.a(memcpy.o)
 .text          0x0000000000000000        0x0 c:/program files/microchip/xc32/v4.35/bin/bin/../../lib/gcc/pic32mx/8.3.1/../../../../pic32mx/lib/fpu64\libc-musl.a(strlen.o)
 .data          0x0000000000000000        0x0 c:/program files/microchip/xc32/v4.35/bin/bin/../../lib/gcc/pic32mx/8.3.1/../../../../pic32mx/lib/fpu64\libc-musl.a(strlen.o)
 .bss           0x0000000000000000        0x0 c:/program files/microchip/xc32/v4.35/bin/bin/../../lib/gcc/pic32mx/8.3.1/../../../../pic32mx/lib/fpu64\libc-musl.a(strlen.o)
 .reginfo       0x0000000000000000       0x18 c:/program files/microchip/xc32/v4.35/bin/bin/../../lib/gcc/pic32mx/8.3.1/../../../../pic32mx/lib/fpu64\libc-musl.a(strlen.o)
 .MIPS.abiflags
                0x0000000000000000       0x18 c:/program files/microchip/xc32/v4.35/bin/bin/../../lib/gcc/pic32mx/8.3.1/../../../../pic32mx/lib/fpu64\libc-musl.a(strlen.o)
 .xc_stack_usage
                0x0000000000000000       0x14 c:/program files/microchip/xc32/v4.35/bin/bin/../../lib/gcc/pic32mx/8.3.1/../../../../pic32mx/lib/fpu64\libc-musl.a(strlen.o)
 .xc_stack_usage.hdr
                0x0000000000000000        0xe c:/program files/microchip/xc32/v4.35/bin/bin/../../lib/gcc/pic32mx/8.3.1/../../../../pic32mx/lib/fpu64\libc-musl.a(strlen.o)
 .note.GNU-stack
                0x0000000000000000        0x0 c:/program files/microchip/xc32/v4.35/bin/bin/../../lib/gcc/pic32mx/8.3.1/../../../../pic32mx/lib/fpu64\libc-musl.a(strlen.o)
 .text          0x0000000000000000        0x0 c:/program files/microchip/xc32/v4.35/bin/bin/../../lib/gcc/pic32mx/8.3.1/../../../../pic32mx/lib/fpu64\libc-musl.a(tolower.o)
 .data          0x0000000000000000        0x0 c:/program files/microchip/xc32/v4.35/bin/bin/../../lib/gcc/pic32mx/8.3.1/../../../../pic32mx/lib/fpu64\libc-musl.a(tolower.o)
 .bss           0x0000000000000000        0x0 c:/program files/microchip/xc32/v4.35/bin/bin/../../lib/gcc/pic32mx/8.3.1/../../../../pic32mx/lib/fpu64\libc-musl.a(tolower.o)
 .reginfo       0x0000000000000000       0x18 c:/program files/microchip/xc32/v4.35/bin/bin/../../lib/gcc/pic32mx/8.3.1/../../../../pic32mx/lib/fpu64\libc-musl.a(tolower.o)
 .MIPS.abiflags
                0x0000000000000000       0x18 c:/program files/microchip/xc32/v4.35/bin/bin/../../lib/gcc/pic32mx/8.3.1/../../../../pic32mx/lib/fpu64\libc-musl.a(tolower.o)
 .xc_stack_usage
                0x0000000000000000       0x2e c:/program files/microchip/xc32/v4.35/bin/bin/../../lib/gcc/pic32mx/8.3.1/../../../../pic32mx/lib/fpu64\libc-musl.a(tolower.o)
 .text.__tolower_l
                0x0000000000000000       0x1c c:/program files/microchip/xc32/v4.35/bin/bin/../../lib/gcc/pic32mx/8.3.1/../../../../pic32mx/lib/fpu64\libc-musl.a(tolower.o)
 .xc_stack_usage.hdr
                0x0000000000000000        0xe c:/program files/microchip/xc32/v4.35/bin/bin/../../lib/gcc/pic32mx/8.3.1/../../../../pic32mx/lib/fpu64\libc-musl.a(tolower.o)
 .note.GNU-stack
                0x0000000000000000        0x0 c:/program files/microchip/xc32/v4.35/bin/bin/../../lib/gcc/pic32mx/8.3.1/../../../../pic32mx/lib/fpu64\libc-musl.a(tolower.o)
 .text          0x0000000000000000        0x0 c:/program files/microchip/xc32/v4.35/bin/bin/../../lib/gcc/pic32mx/8.3.1/../../../../pic32mx/lib/fpu64\libc-musl.a(__int_vfprintf.o)
 .data          0x0000000000000000        0x0 c:/program files/microchip/xc32/v4.35/bin/bin/../../lib/gcc/pic32mx/8.3.1/../../../../pic32mx/lib/fpu64\libc-musl.a(__int_vfprintf.o)
 .bss           0x0000000000000000        0x0 c:/program files/microchip/xc32/v4.35/bin/bin/../../lib/gcc/pic32mx/8.3.1/../../../../pic32mx/lib/fpu64\libc-musl.a(__int_vfprintf.o)
 .reginfo       0x0000000000000000       0x18 c:/program files/microchip/xc32/v4.35/bin/bin/../../lib/gcc/pic32mx/8.3.1/../../../../pic32mx/lib/fpu64\libc-musl.a(__int_vfprintf.o)
 .MIPS.abiflags
                0x0000000000000000       0x18 c:/program files/microchip/xc32/v4.35/bin/bin/../../lib/gcc/pic32mx/8.3.1/../../../../pic32mx/lib/fpu64\libc-musl.a(__int_vfprintf.o)
 .xc_stack_usage
                0x0000000000000000       0x18 c:/program files/microchip/xc32/v4.35/bin/bin/../../lib/gcc/pic32mx/8.3.1/../../../../pic32mx/lib/fpu64\libc-musl.a(__int_vfprintf.o)
 .xc_stack_usage.hdr
                0x0000000000000000        0xe c:/program files/microchip/xc32/v4.35/bin/bin/../../lib/gcc/pic32mx/8.3.1/../../../../pic32mx/lib/fpu64\libc-musl.a(__int_vfprintf.o)
 .note.GNU-stack
                0x0000000000000000        0x0 c:/program files/microchip/xc32/v4.35/bin/bin/../../lib/gcc/pic32mx/8.3.1/../../../../pic32mx/lib/fpu64\libc-musl.a(__int_vfprintf.o)
 .text          0x0000000000000000        0x0 c:/program files/microchip/xc32/v4.35/bin/bin/../../lib/gcc/pic32mx/8.3.1/../../../../pic32mx/lib/fpu64\libc-musl.a(fputs.o)
 .data          0x0000000000000000        0x0 c:/program files/microchip/xc32/v4.35/bin/bin/../../lib/gcc/pic32mx/8.3.1/../../../../pic32mx/lib/fpu64\libc-musl.a(fputs.o)
 .bss           0x0000000000000000        0x0 c:/program files/microchip/xc32/v4.35/bin/bin/../../lib/gcc/pic32mx/8.3.1/../../../../pic32mx/lib/fpu64\libc-musl.a(fputs.o)
 .reginfo       0x0000000000000000       0x18 c:/program files/microchip/xc32/v4.35/bin/bin/../../lib/gcc/pic32mx/8.3.1/../../../../pic32mx/lib/fpu64\libc-musl.a(fputs.o)
 .MIPS.abiflags
                0x0000000000000000       0x18 c:/program files/microchip/xc32/v4.35/bin/bin/../../lib/gcc/pic32mx/8.3.1/../../../../pic32mx/lib/fpu64\libc-musl.a(fputs.o)
 .xc_stack_usage
                0x0000000000000000       0x13 c:/program files/microchip/xc32/v4.35/bin/bin/../../lib/gcc/pic32mx/8.3.1/../../../../pic32mx/lib/fpu64\libc-musl.a(fputs.o)
 .xc_stack_usage.hdr
                0x0000000000000000        0xe c:/program files/microchip/xc32/v4.35/bin/bin/../../lib/gcc/pic32mx/8.3.1/../../../../pic32mx/lib/fpu64\libc-musl.a(fputs.o)
 .note.GNU-stack
                0x0000000000000000        0x0 c:/program files/microchip/xc32/v4.35/bin/bin/../../lib/gcc/pic32mx/8.3.1/../../../../pic32mx/lib/fpu64\libc-musl.a(fputs.o)
 .text          0x0000000000000000        0x0 c:/program files/microchip/xc32/v4.35/bin/bin/../../lib/gcc/pic32mx/8.3.1/../../../../pic32mx/lib/fpu64\libc-musl.a(__cvt_u.o)
 .data          0x0000000000000000        0x0 c:/program files/microchip/xc32/v4.35/bin/bin/../../lib/gcc/pic32mx/8.3.1/../../../../pic32mx/lib/fpu64\libc-musl.a(__cvt_u.o)
 .bss           0x0000000000000000        0x0 c:/program files/microchip/xc32/v4.35/bin/bin/../../lib/gcc/pic32mx/8.3.1/../../../../pic32mx/lib/fpu64\libc-musl.a(__cvt_u.o)
 .reginfo       0x0000000000000000       0x18 c:/program files/microchip/xc32/v4.35/bin/bin/../../lib/gcc/pic32mx/8.3.1/../../../../pic32mx/lib/fpu64\libc-musl.a(__cvt_u.o)
 .MIPS.abiflags
                0x0000000000000000       0x18 c:/program files/microchip/xc32/v4.35/bin/bin/../../lib/gcc/pic32mx/8.3.1/../../../../pic32mx/lib/fpu64\libc-musl.a(__cvt_u.o)
 .xc_stack_usage
                0x0000000000000000       0x15 c:/program files/microchip/xc32/v4.35/bin/bin/../../lib/gcc/pic32mx/8.3.1/../../../../pic32mx/lib/fpu64\libc-musl.a(__cvt_u.o)
 .xc_stack_usage.hdr
                0x0000000000000000        0xe c:/program files/microchip/xc32/v4.35/bin/bin/../../lib/gcc/pic32mx/8.3.1/../../../../pic32mx/lib/fpu64\libc-musl.a(__cvt_u.o)
 .note.GNU-stack
                0x0000000000000000        0x0 c:/program files/microchip/xc32/v4.35/bin/bin/../../lib/gcc/pic32mx/8.3.1/../../../../pic32mx/lib/fpu64\libc-musl.a(__cvt_u.o)
 .text          0x0000000000000000        0x0 c:/program files/microchip/xc32/v4.35/bin/bin/../../lib/gcc/pic32mx/8.3.1/../../../../pic32mx/lib/fpu64\libc-musl.a(__io_init_needed.o)
 .data          0x0000000000000000        0x0 c:/program files/microchip/xc32/v4.35/bin/bin/../../lib/gcc/pic32mx/8.3.1/../../../../pic32mx/lib/fpu64\libc-musl.a(__io_init_needed.o)
 .bss           0x0000000000000000        0x0 c:/program files/microchip/xc32/v4.35/bin/bin/../../lib/gcc/pic32mx/8.3.1/../../../../pic32mx/lib/fpu64\libc-musl.a(__io_init_needed.o)
 .reginfo       0x0000000000000000       0x18 c:/program files/microchip/xc32/v4.35/bin/bin/../../lib/gcc/pic32mx/8.3.1/../../../../pic32mx/lib/fpu64\libc-musl.a(__io_init_needed.o)
 .MIPS.abiflags
                0x0000000000000000       0x18 c:/program files/microchip/xc32/v4.35/bin/bin/../../lib/gcc/pic32mx/8.3.1/../../../../pic32mx/lib/fpu64\libc-musl.a(__io_init_needed.o)
 .xc_stack_usage
                0x0000000000000000       0x40 c:/program files/microchip/xc32/v4.35/bin/bin/../../lib/gcc/pic32mx/8.3.1/../../../../pic32mx/lib/fpu64\libc-musl.a(__io_init_needed.o)
 .xc_stack_usage.hdr
                0x0000000000000000        0xe c:/program files/microchip/xc32/v4.35/bin/bin/../../lib/gcc/pic32mx/8.3.1/../../../../pic32mx/lib/fpu64\libc-musl.a(__io_init_needed.o)
 .note.GNU-stack
                0x0000000000000000        0x0 c:/program files/microchip/xc32/v4.35/bin/bin/../../lib/gcc/pic32mx/8.3.1/../../../../pic32mx/lib/fpu64\libc-musl.a(__io_init_needed.o)
 .text          0x0000000000000000        0x0 c:/program files/microchip/xc32/v4.35/bin/bin/../../lib/gcc/pic32mx/8.3.1/../../../../pic32mx/lib/fpu64\libc-musl.a(__io_rw_needed.o)
 .data          0x0000000000000000        0x0 c:/program files/microchip/xc32/v4.35/bin/bin/../../lib/gcc/pic32mx/8.3.1/../../../../pic32mx/lib/fpu64\libc-musl.a(__io_rw_needed.o)
 .bss           0x0000000000000000        0x0 c:/program files/microchip/xc32/v4.35/bin/bin/../../lib/gcc/pic32mx/8.3.1/../../../../pic32mx/lib/fpu64\libc-musl.a(__io_rw_needed.o)
 .reginfo       0x0000000000000000       0x18 c:/program files/microchip/xc32/v4.35/bin/bin/../../lib/gcc/pic32mx/8.3.1/../../../../pic32mx/lib/fpu64\libc-musl.a(__io_rw_needed.o)
 .MIPS.abiflags
                0x0000000000000000       0x18 c:/program files/microchip/xc32/v4.35/bin/bin/../../lib/gcc/pic32mx/8.3.1/../../../../pic32mx/lib/fpu64\libc-musl.a(__io_rw_needed.o)
 .xc_stack_usage
                0x0000000000000000       0x1c c:/program files/microchip/xc32/v4.35/bin/bin/../../lib/gcc/pic32mx/8.3.1/../../../../pic32mx/lib/fpu64\libc-musl.a(__io_rw_needed.o)
 .xc_stack_usage.hdr
                0x0000000000000000        0xe c:/program files/microchip/xc32/v4.35/bin/bin/../../lib/gcc/pic32mx/8.3.1/../../../../pic32mx/lib/fpu64\libc-musl.a(__io_rw_needed.o)
 .note.GNU-stack
                0x0000000000000000        0x0 c:/program files/microchip/xc32/v4.35/bin/bin/../../lib/gcc/pic32mx/8.3.1/../../../../pic32mx/lib/fpu64\libc-musl.a(__io_rw_needed.o)
 .text          0x0000000000000000        0x0 c:/program files/microchip/xc32/v4.35/bin/bin/../../lib/gcc/pic32mx/8.3.1/../../../../pic32mx/lib/fpu64\libc-musl.a(__out.o)
 .data          0x0000000000000000        0x0 c:/program files/microchip/xc32/v4.35/bin/bin/../../lib/gcc/pic32mx/8.3.1/../../../../pic32mx/lib/fpu64\libc-musl.a(__out.o)
 .bss           0x0000000000000000        0x0 c:/program files/microchip/xc32/v4.35/bin/bin/../../lib/gcc/pic32mx/8.3.1/../../../../pic32mx/lib/fpu64\libc-musl.a(__out.o)
 .reginfo       0x0000000000000000       0x18 c:/program files/microchip/xc32/v4.35/bin/bin/../../lib/gcc/pic32mx/8.3.1/../../../../pic32mx/lib/fpu64\libc-musl.a(__out.o)
 .MIPS.abiflags
                0x0000000000000000       0x18 c:/program files/microchip/xc32/v4.35/bin/bin/../../lib/gcc/pic32mx/8.3.1/../../../../pic32mx/lib/fpu64\libc-musl.a(__out.o)
 .xc_stack_usage
                0x0000000000000000       0x2d c:/program files/microchip/xc32/v4.35/bin/bin/../../lib/gcc/pic32mx/8.3.1/../../../../pic32mx/lib/fpu64\libc-musl.a(__out.o)
 .xc_stack_usage.hdr
                0x0000000000000000        0xe c:/program files/microchip/xc32/v4.35/bin/bin/../../lib/gcc/pic32mx/8.3.1/../../../../pic32mx/lib/fpu64\libc-musl.a(__out.o)
 .note.GNU-stack
                0x0000000000000000        0x0 c:/program files/microchip/xc32/v4.35/bin/bin/../../lib/gcc/pic32mx/8.3.1/../../../../pic32mx/lib/fpu64\libc-musl.a(__out.o)
 .text          0x0000000000000000        0x0 c:/program files/microchip/xc32/v4.35/bin/bin/../../lib/gcc/pic32mx/8.3.1/../../../../pic32mx/lib/fpu64\libc-musl.a(__pop_float.o)
 .data          0x0000000000000000        0x0 c:/program files/microchip/xc32/v4.35/bin/bin/../../lib/gcc/pic32mx/8.3.1/../../../../pic32mx/lib/fpu64\libc-musl.a(__pop_float.o)
 .bss           0x0000000000000000        0x0 c:/program files/microchip/xc32/v4.35/bin/bin/../../lib/gcc/pic32mx/8.3.1/../../../../pic32mx/lib/fpu64\libc-musl.a(__pop_float.o)
 .reginfo       0x0000000000000000       0x18 c:/program files/microchip/xc32/v4.35/bin/bin/../../lib/gcc/pic32mx/8.3.1/../../../../pic32mx/lib/fpu64\libc-musl.a(__pop_float.o)
 .MIPS.abiflags
                0x0000000000000000       0x18 c:/program files/microchip/xc32/v4.35/bin/bin/../../lib/gcc/pic32mx/8.3.1/../../../../pic32mx/lib/fpu64\libc-musl.a(__pop_float.o)
 .xc_stack_usage
                0x0000000000000000       0x19 c:/program files/microchip/xc32/v4.35/bin/bin/../../lib/gcc/pic32mx/8.3.1/../../../../pic32mx/lib/fpu64\libc-musl.a(__pop_float.o)
 .xc_stack_usage.hdr
                0x0000000000000000        0xe c:/program files/microchip/xc32/v4.35/bin/bin/../../lib/gcc/pic32mx/8.3.1/../../../../pic32mx/lib/fpu64\libc-musl.a(__pop_float.o)
 .note.GNU-stack
                0x0000000000000000        0x0 c:/program files/microchip/xc32/v4.35/bin/bin/../../lib/gcc/pic32mx/8.3.1/../../../../pic32mx/lib/fpu64\libc-musl.a(__pop_float.o)
 .text          0x0000000000000000        0x0 c:/program files/microchip/xc32/v4.35/bin/bin/../../lib/gcc/pic32mx/8.3.1/../../../../pic32mx/lib/fpu64\libc-musl.a(__stdio_close.o)
 .data          0x0000000000000000        0x0 c:/program files/microchip/xc32/v4.35/bin/bin/../../lib/gcc/pic32mx/8.3.1/../../../../pic32mx/lib/fpu64\libc-musl.a(__stdio_close.o)
 .bss           0x0000000000000000        0x0 c:/program files/microchip/xc32/v4.35/bin/bin/../../lib/gcc/pic32mx/8.3.1/../../../../pic32mx/lib/fpu64\libc-musl.a(__stdio_close.o)
 .reginfo       0x0000000000000000       0x18 c:/program files/microchip/xc32/v4.35/bin/bin/../../lib/gcc/pic32mx/8.3.1/../../../../pic32mx/lib/fpu64\libc-musl.a(__stdio_close.o)
 .MIPS.abiflags
                0x0000000000000000       0x18 c:/program files/microchip/xc32/v4.35/bin/bin/../../lib/gcc/pic32mx/8.3.1/../../../../pic32mx/lib/fpu64\libc-musl.a(__stdio_close.o)
 .xc_stack_usage
                0x0000000000000000       0x39 c:/program files/microchip/xc32/v4.35/bin/bin/../../lib/gcc/pic32mx/8.3.1/../../../../pic32mx/lib/fpu64\libc-musl.a(__stdio_close.o)
 .text.__stdio_close
                0x0000000000000000       0xa0 c:/program files/microchip/xc32/v4.35/bin/bin/../../lib/gcc/pic32mx/8.3.1/../../../../pic32mx/lib/fpu64\libc-musl.a(__stdio_close.o)
 .xc_stack_usage.hdr
                0x0000000000000000        0xe c:/program files/microchip/xc32/v4.35/bin/bin/../../lib/gcc/pic32mx/8.3.1/../../../../pic32mx/lib/fpu64\libc-musl.a(__stdio_close.o)
 .note.GNU-stack
                0x0000000000000000        0x0 c:/program files/microchip/xc32/v4.35/bin/bin/../../lib/gcc/pic32mx/8.3.1/../../../../pic32mx/lib/fpu64\libc-musl.a(__stdio_close.o)
 .text          0x0000000000000000        0x0 c:/program files/microchip/xc32/v4.35/bin/bin/../../lib/gcc/pic32mx/8.3.1/../../../../pic32mx/lib/fpu64\libc-musl.a(__stdio_read.o)
 .data          0x0000000000000000        0x0 c:/program files/microchip/xc32/v4.35/bin/bin/../../lib/gcc/pic32mx/8.3.1/../../../../pic32mx/lib/fpu64\libc-musl.a(__stdio_read.o)
 .bss           0x0000000000000000        0x0 c:/program files/microchip/xc32/v4.35/bin/bin/../../lib/gcc/pic32mx/8.3.1/../../../../pic32mx/lib/fpu64\libc-musl.a(__stdio_read.o)
 .reginfo       0x0000000000000000       0x18 c:/program files/microchip/xc32/v4.35/bin/bin/../../lib/gcc/pic32mx/8.3.1/../../../../pic32mx/lib/fpu64\libc-musl.a(__stdio_read.o)
 .MIPS.abiflags
                0x0000000000000000       0x18 c:/program files/microchip/xc32/v4.35/bin/bin/../../lib/gcc/pic32mx/8.3.1/../../../../pic32mx/lib/fpu64\libc-musl.a(__stdio_read.o)
 .xc_stack_usage
                0x0000000000000000       0x1a c:/program files/microchip/xc32/v4.35/bin/bin/../../lib/gcc/pic32mx/8.3.1/../../../../pic32mx/lib/fpu64\libc-musl.a(__stdio_read.o)
 .xc_stack_usage.hdr
                0x0000000000000000        0xe c:/program files/microchip/xc32/v4.35/bin/bin/../../lib/gcc/pic32mx/8.3.1/../../../../pic32mx/lib/fpu64\libc-musl.a(__stdio_read.o)
 .note.GNU-stack
                0x0000000000000000        0x0 c:/program files/microchip/xc32/v4.35/bin/bin/../../lib/gcc/pic32mx/8.3.1/../../../../pic32mx/lib/fpu64\libc-musl.a(__stdio_read.o)
 .text          0x0000000000000000        0x0 c:/program files/microchip/xc32/v4.35/bin/bin/../../lib/gcc/pic32mx/8.3.1/../../../../pic32mx/lib/fpu64\libc-musl.a(__towrite_rw.o)
 .data          0x0000000000000000        0x0 c:/program files/microchip/xc32/v4.35/bin/bin/../../lib/gcc/pic32mx/8.3.1/../../../../pic32mx/lib/fpu64\libc-musl.a(__towrite_rw.o)
 .bss           0x0000000000000000        0x0 c:/program files/microchip/xc32/v4.35/bin/bin/../../lib/gcc/pic32mx/8.3.1/../../../../pic32mx/lib/fpu64\libc-musl.a(__towrite_rw.o)
 .reginfo       0x0000000000000000       0x18 c:/program files/microchip/xc32/v4.35/bin/bin/../../lib/gcc/pic32mx/8.3.1/../../../../pic32mx/lib/fpu64\libc-musl.a(__towrite_rw.o)
 .MIPS.abiflags
                0x0000000000000000       0x18 c:/program files/microchip/xc32/v4.35/bin/bin/../../lib/gcc/pic32mx/8.3.1/../../../../pic32mx/lib/fpu64\libc-musl.a(__towrite_rw.o)
 .xc_stack_usage
                0x0000000000000000       0x1a c:/program files/microchip/xc32/v4.35/bin/bin/../../lib/gcc/pic32mx/8.3.1/../../../../pic32mx/lib/fpu64\libc-musl.a(__towrite_rw.o)
 .xc_stack_usage.hdr
                0x0000000000000000        0xe c:/program files/microchip/xc32/v4.35/bin/bin/../../lib/gcc/pic32mx/8.3.1/../../../../pic32mx/lib/fpu64\libc-musl.a(__towrite_rw.o)
 .note.GNU-stack
                0x0000000000000000        0x0 c:/program files/microchip/xc32/v4.35/bin/bin/../../lib/gcc/pic32mx/8.3.1/../../../../pic32mx/lib/fpu64\libc-musl.a(__towrite_rw.o)
 .text          0x0000000000000000        0x0 c:/program files/microchip/xc32/v4.35/bin/bin/../../lib/gcc/pic32mx/8.3.1/../../../../pic32mx/lib/fpu64\libc-musl.a(fwrite.o)
 .data          0x0000000000000000        0x0 c:/program files/microchip/xc32/v4.35/bin/bin/../../lib/gcc/pic32mx/8.3.1/../../../../pic32mx/lib/fpu64\libc-musl.a(fwrite.o)
 .bss           0x0000000000000000        0x0 c:/program files/microchip/xc32/v4.35/bin/bin/../../lib/gcc/pic32mx/8.3.1/../../../../pic32mx/lib/fpu64\libc-musl.a(fwrite.o)
 .reginfo       0x0000000000000000       0x18 c:/program files/microchip/xc32/v4.35/bin/bin/../../lib/gcc/pic32mx/8.3.1/../../../../pic32mx/lib/fpu64\libc-musl.a(fwrite.o)
 .MIPS.abiflags
                0x0000000000000000       0x18 c:/program files/microchip/xc32/v4.35/bin/bin/../../lib/gcc/pic32mx/8.3.1/../../../../pic32mx/lib/fpu64\libc-musl.a(fwrite.o)
 .xc_stack_usage
                0x0000000000000000       0x2e c:/program files/microchip/xc32/v4.35/bin/bin/../../lib/gcc/pic32mx/8.3.1/../../../../pic32mx/lib/fpu64\libc-musl.a(fwrite.o)
 .text.__fwrite_min
                0x0000000000000000       0x20 c:/program files/microchip/xc32/v4.35/bin/bin/../../lib/gcc/pic32mx/8.3.1/../../../../pic32mx/lib/fpu64\libc-musl.a(fwrite.o)
 .xc_stack_usage.hdr
                0x0000000000000000        0xe c:/program files/microchip/xc32/v4.35/bin/bin/../../lib/gcc/pic32mx/8.3.1/../../../../pic32mx/lib/fpu64\libc-musl.a(fwrite.o)
 .note.GNU-stack
                0x0000000000000000        0x0 c:/program files/microchip/xc32/v4.35/bin/bin/../../lib/gcc/pic32mx/8.3.1/../../../../pic32mx/lib/fpu64\libc-musl.a(fwrite.o)
 .text          0x0000000000000000        0x0 c:/program files/microchip/xc32/v4.35/bin/bin/../../lib/gcc/pic32mx/8.3.1/../../../../pic32mx/lib/fpu64\libc-musl.a(putc.o)
 .data          0x0000000000000000        0x0 c:/program files/microchip/xc32/v4.35/bin/bin/../../lib/gcc/pic32mx/8.3.1/../../../../pic32mx/lib/fpu64\libc-musl.a(putc.o)
 .bss           0x0000000000000000        0x0 c:/program files/microchip/xc32/v4.35/bin/bin/../../lib/gcc/pic32mx/8.3.1/../../../../pic32mx/lib/fpu64\libc-musl.a(putc.o)
 .reginfo       0x0000000000000000       0x18 c:/program files/microchip/xc32/v4.35/bin/bin/../../lib/gcc/pic32mx/8.3.1/../../../../pic32mx/lib/fpu64\libc-musl.a(putc.o)
 .MIPS.abiflags
                0x0000000000000000       0x18 c:/program files/microchip/xc32/v4.35/bin/bin/../../lib/gcc/pic32mx/8.3.1/../../../../pic32mx/lib/fpu64\libc-musl.a(putc.o)
 .xc_stack_usage
                0x0000000000000000       0x4f c:/program files/microchip/xc32/v4.35/bin/bin/../../lib/gcc/pic32mx/8.3.1/../../../../pic32mx/lib/fpu64\libc-musl.a(putc.o)
 .xc_stack_usage.hdr
                0x0000000000000000        0xe c:/program files/microchip/xc32/v4.35/bin/bin/../../lib/gcc/pic32mx/8.3.1/../../../../pic32mx/lib/fpu64\libc-musl.a(putc.o)
 .note.GNU-stack
                0x0000000000000000        0x0 c:/program files/microchip/xc32/v4.35/bin/bin/../../lib/gcc/pic32mx/8.3.1/../../../../pic32mx/lib/fpu64\libc-musl.a(putc.o)
 .text          0x0000000000000000        0x0 c:/program files/microchip/xc32/v4.35/bin/bin/../../lib/gcc/pic32mx/8.3.1/../../../../pic32mx/lib/fpu64\libc-musl.a(setvbuf.o)
 .data          0x0000000000000000        0x0 c:/program files/microchip/xc32/v4.35/bin/bin/../../lib/gcc/pic32mx/8.3.1/../../../../pic32mx/lib/fpu64\libc-musl.a(setvbuf.o)
 .bss           0x0000000000000000        0x0 c:/program files/microchip/xc32/v4.35/bin/bin/../../lib/gcc/pic32mx/8.3.1/../../../../pic32mx/lib/fpu64\libc-musl.a(setvbuf.o)
 .reginfo       0x0000000000000000       0x18 c:/program files/microchip/xc32/v4.35/bin/bin/../../lib/gcc/pic32mx/8.3.1/../../../../pic32mx/lib/fpu64\libc-musl.a(setvbuf.o)
 .MIPS.abiflags
                0x0000000000000000       0x18 c:/program files/microchip/xc32/v4.35/bin/bin/../../lib/gcc/pic32mx/8.3.1/../../../../pic32mx/lib/fpu64\libc-musl.a(setvbuf.o)
 .xc_stack_usage
                0x0000000000000000       0x36 c:/program files/microchip/xc32/v4.35/bin/bin/../../lib/gcc/pic32mx/8.3.1/../../../../pic32mx/lib/fpu64\libc-musl.a(setvbuf.o)
 .xc_stack_usage.hdr
                0x0000000000000000        0xe c:/program files/microchip/xc32/v4.35/bin/bin/../../lib/gcc/pic32mx/8.3.1/../../../../pic32mx/lib/fpu64\libc-musl.a(setvbuf.o)
 .note.GNU-stack
                0x0000000000000000        0x0 c:/program files/microchip/xc32/v4.35/bin/bin/../../lib/gcc/pic32mx/8.3.1/../../../../pic32mx/lib/fpu64\libc-musl.a(setvbuf.o)
 .text          0x0000000000000000        0x0 c:/program files/microchip/xc32/v4.35/bin/bin/../../lib/gcc/pic32mx/8.3.1/../../../../pic32mx/lib/fpu64\libc-musl.a(readv.o)
 .data          0x0000000000000000        0x0 c:/program files/microchip/xc32/v4.35/bin/bin/../../lib/gcc/pic32mx/8.3.1/../../../../pic32mx/lib/fpu64\libc-musl.a(readv.o)
 .bss           0x0000000000000000        0x0 c:/program files/microchip/xc32/v4.35/bin/bin/../../lib/gcc/pic32mx/8.3.1/../../../../pic32mx/lib/fpu64\libc-musl.a(readv.o)
 .reginfo       0x0000000000000000       0x18 c:/program files/microchip/xc32/v4.35/bin/bin/../../lib/gcc/pic32mx/8.3.1/../../../../pic32mx/lib/fpu64\libc-musl.a(readv.o)
 .MIPS.abiflags
                0x0000000000000000       0x18 c:/program files/microchip/xc32/v4.35/bin/bin/../../lib/gcc/pic32mx/8.3.1/../../../../pic32mx/lib/fpu64\libc-musl.a(readv.o)
 .xc_stack_usage
                0x0000000000000000       0x15 c:/program files/microchip/xc32/v4.35/bin/bin/../../lib/gcc/pic32mx/8.3.1/../../../../pic32mx/lib/fpu64\libc-musl.a(readv.o)
 .xc_stack_usage.hdr
                0x0000000000000000        0xe c:/program files/microchip/xc32/v4.35/bin/bin/../../lib/gcc/pic32mx/8.3.1/../../../../pic32mx/lib/fpu64\libc-musl.a(readv.o)
 .note.GNU-stack
                0x0000000000000000        0x0 c:/program files/microchip/xc32/v4.35/bin/bin/../../lib/gcc/pic32mx/8.3.1/../../../../pic32mx/lib/fpu64\libc-musl.a(readv.o)
 .text          0x0000000000000000        0x0 c:/program files/microchip/xc32/v4.35/bin/bin/../../lib/gcc/pic32mx/8.3.1/../../../../pic32mx/lib/fpu64\libc-musl.a(malloc.o)
 .data          0x0000000000000000        0x0 c:/program files/microchip/xc32/v4.35/bin/bin/../../lib/gcc/pic32mx/8.3.1/../../../../pic32mx/lib/fpu64\libc-musl.a(malloc.o)
 .reginfo       0x0000000000000000       0x18 c:/program files/microchip/xc32/v4.35/bin/bin/../../lib/gcc/pic32mx/8.3.1/../../../../pic32mx/lib/fpu64\libc-musl.a(malloc.o)
 .MIPS.abiflags
                0x0000000000000000       0x18 c:/program files/microchip/xc32/v4.35/bin/bin/../../lib/gcc/pic32mx/8.3.1/../../../../pic32mx/lib/fpu64\libc-musl.a(malloc.o)
 .xc_stack_usage
                0x0000000000000000       0xeb c:/program files/microchip/xc32/v4.35/bin/bin/../../lib/gcc/pic32mx/8.3.1/../../../../pic32mx/lib/fpu64\libc-musl.a(malloc.o)
 .text.__malloc0
                0x0000000000000000       0x50 c:/program files/microchip/xc32/v4.35/bin/bin/../../lib/gcc/pic32mx/8.3.1/../../../../pic32mx/lib/fpu64\libc-musl.a(malloc.o)
 .text.realloc  0x0000000000000000      0x118 c:/program files/microchip/xc32/v4.35/bin/bin/../../lib/gcc/pic32mx/8.3.1/../../../../pic32mx/lib/fpu64\libc-musl.a(malloc.o)
 .xc_stack_usage.hdr
                0x0000000000000000        0xe c:/program files/microchip/xc32/v4.35/bin/bin/../../lib/gcc/pic32mx/8.3.1/../../../../pic32mx/lib/fpu64\libc-musl.a(malloc.o)
 .note.GNU-stack
                0x0000000000000000        0x0 c:/program files/microchip/xc32/v4.35/bin/bin/../../lib/gcc/pic32mx/8.3.1/../../../../pic32mx/lib/fpu64\libc-musl.a(malloc.o)
 .text          0x0000000000000000        0x0 c:/program files/microchip/xc32/v4.35/bin/bin/../../lib/gcc/pic32mx/8.3.1/../../../../pic32mx/lib/fpu64\libc-musl.a(expand_heap.o)
 .data          0x0000000000000000        0x0 c:/program files/microchip/xc32/v4.35/bin/bin/../../lib/gcc/pic32mx/8.3.1/../../../../pic32mx/lib/fpu64\libc-musl.a(expand_heap.o)
 .bss           0x0000000000000000        0x0 c:/program files/microchip/xc32/v4.35/bin/bin/../../lib/gcc/pic32mx/8.3.1/../../../../pic32mx/lib/fpu64\libc-musl.a(expand_heap.o)
 .reginfo       0x0000000000000000       0x18 c:/program files/microchip/xc32/v4.35/bin/bin/../../lib/gcc/pic32mx/8.3.1/../../../../pic32mx/lib/fpu64\libc-musl.a(expand_heap.o)
 .MIPS.abiflags
                0x0000000000000000       0x18 c:/program files/microchip/xc32/v4.35/bin/bin/../../lib/gcc/pic32mx/8.3.1/../../../../pic32mx/lib/fpu64\libc-musl.a(expand_heap.o)
 .xc_stack_usage
                0x0000000000000000       0x1b c:/program files/microchip/xc32/v4.35/bin/bin/../../lib/gcc/pic32mx/8.3.1/../../../../pic32mx/lib/fpu64\libc-musl.a(expand_heap.o)
 .xc_stack_usage.hdr
                0x0000000000000000        0xe c:/program files/microchip/xc32/v4.35/bin/bin/../../lib/gcc/pic32mx/8.3.1/../../../../pic32mx/lib/fpu64\libc-musl.a(expand_heap.o)
 .note.GNU-stack
                0x0000000000000000        0x0 c:/program files/microchip/xc32/v4.35/bin/bin/../../lib/gcc/pic32mx/8.3.1/../../../../pic32mx/lib/fpu64\libc-musl.a(expand_heap.o)
 .text          0x0000000000000000        0x0 c:/program files/microchip/xc32/v4.35/bin/bin/../../lib/gcc/pic32mx/8.3.1/../../../../pic32mx/lib/fpu64\libc-musl.a(__fopen_rw.o)
 .data          0x0000000000000000        0x0 c:/program files/microchip/xc32/v4.35/bin/bin/../../lib/gcc/pic32mx/8.3.1/../../../../pic32mx/lib/fpu64\libc-musl.a(__fopen_rw.o)
 .bss           0x0000000000000000        0x0 c:/program files/microchip/xc32/v4.35/bin/bin/../../lib/gcc/pic32mx/8.3.1/../../../../pic32mx/lib/fpu64\libc-musl.a(__fopen_rw.o)
 .reginfo       0x0000000000000000       0x18 c:/program files/microchip/xc32/v4.35/bin/bin/../../lib/gcc/pic32mx/8.3.1/../../../../pic32mx/lib/fpu64\libc-musl.a(__fopen_rw.o)
 .MIPS.abiflags
                0x0000000000000000       0x18 c:/program files/microchip/xc32/v4.35/bin/bin/../../lib/gcc/pic32mx/8.3.1/../../../../pic32mx/lib/fpu64\libc-musl.a(__fopen_rw.o)
 .xc_stack_usage
                0x0000000000000000       0x18 c:/program files/microchip/xc32/v4.35/bin/bin/../../lib/gcc/pic32mx/8.3.1/../../../../pic32mx/lib/fpu64\libc-musl.a(__fopen_rw.o)
 .text.__fopen_rw
                0x0000000000000000       0x88 c:/program files/microchip/xc32/v4.35/bin/bin/../../lib/gcc/pic32mx/8.3.1/../../../../pic32mx/lib/fpu64\libc-musl.a(__fopen_rw.o)
 .xc_stack_usage.hdr
                0x0000000000000000        0xe c:/program files/microchip/xc32/v4.35/bin/bin/../../lib/gcc/pic32mx/8.3.1/../../../../pic32mx/lib/fpu64\libc-musl.a(__fopen_rw.o)
 .note.GNU-stack
                0x0000000000000000        0x0 c:/program files/microchip/xc32/v4.35/bin/bin/../../lib/gcc/pic32mx/8.3.1/../../../../pic32mx/lib/fpu64\libc-musl.a(__fopen_rw.o)
 .text          0x0000000000000000        0x0 c:/program files/microchip/xc32/v4.35/bin/bin/../../lib/gcc/pic32mx/8.3.1/../../../../pic32mx/lib/fpu64\libc-musl.a(__ftello_rw.o)
 .data          0x0000000000000000        0x0 c:/program files/microchip/xc32/v4.35/bin/bin/../../lib/gcc/pic32mx/8.3.1/../../../../pic32mx/lib/fpu64\libc-musl.a(__ftello_rw.o)
 .bss           0x0000000000000000        0x0 c:/program files/microchip/xc32/v4.35/bin/bin/../../lib/gcc/pic32mx/8.3.1/../../../../pic32mx/lib/fpu64\libc-musl.a(__ftello_rw.o)
 .reginfo       0x0000000000000000       0x18 c:/program files/microchip/xc32/v4.35/bin/bin/../../lib/gcc/pic32mx/8.3.1/../../../../pic32mx/lib/fpu64\libc-musl.a(__ftello_rw.o)
 .MIPS.abiflags
                0x0000000000000000       0x18 c:/program files/microchip/xc32/v4.35/bin/bin/../../lib/gcc/pic32mx/8.3.1/../../../../pic32mx/lib/fpu64\libc-musl.a(__ftello_rw.o)
 .xc_stack_usage
                0x0000000000000000       0x1d c:/program files/microchip/xc32/v4.35/bin/bin/../../lib/gcc/pic32mx/8.3.1/../../../../pic32mx/lib/fpu64\libc-musl.a(__ftello_rw.o)
 .text.__ftello_adj_rw
                0x0000000000000000       0x48 c:/program files/microchip/xc32/v4.35/bin/bin/../../lib/gcc/pic32mx/8.3.1/../../../../pic32mx/lib/fpu64\libc-musl.a(__ftello_rw.o)
 .xc_stack_usage.hdr
                0x0000000000000000        0xe c:/program files/microchip/xc32/v4.35/bin/bin/../../lib/gcc/pic32mx/8.3.1/../../../../pic32mx/lib/fpu64\libc-musl.a(__ftello_rw.o)
 .note.GNU-stack
                0x0000000000000000        0x0 c:/program files/microchip/xc32/v4.35/bin/bin/../../lib/gcc/pic32mx/8.3.1/../../../../pic32mx/lib/fpu64\libc-musl.a(__ftello_rw.o)
 .text          0x0000000000000000        0x0 c:/program files/microchip/xc32/v4.35/bin/bin/../../lib/gcc/pic32mx/8.3.1/../../../../pic32mx/lib/fpu64\libc-musl.a(__init_stdio.o)
 .data          0x0000000000000000        0x0 c:/program files/microchip/xc32/v4.35/bin/bin/../../lib/gcc/pic32mx/8.3.1/../../../../pic32mx/lib/fpu64\libc-musl.a(__init_stdio.o)
 .bss           0x0000000000000000        0x0 c:/program files/microchip/xc32/v4.35/bin/bin/../../lib/gcc/pic32mx/8.3.1/../../../../pic32mx/lib/fpu64\libc-musl.a(__init_stdio.o)
 .reginfo       0x0000000000000000       0x18 c:/program files/microchip/xc32/v4.35/bin/bin/../../lib/gcc/pic32mx/8.3.1/../../../../pic32mx/lib/fpu64\libc-musl.a(__init_stdio.o)
 .MIPS.abiflags
                0x0000000000000000       0x18 c:/program files/microchip/xc32/v4.35/bin/bin/../../lib/gcc/pic32mx/8.3.1/../../../../pic32mx/lib/fpu64\libc-musl.a(__init_stdio.o)
 .xc_stack_usage
                0x0000000000000000       0x2f c:/program files/microchip/xc32/v4.35/bin/bin/../../lib/gcc/pic32mx/8.3.1/../../../../pic32mx/lib/fpu64\libc-musl.a(__init_stdio.o)
 .text.__dummy  0x0000000000000000        0x8 c:/program files/microchip/xc32/v4.35/bin/bin/../../lib/gcc/pic32mx/8.3.1/../../../../pic32mx/lib/fpu64\libc-musl.a(__init_stdio.o)
 .text.__init_stdio
                0x0000000000000000       0x2c c:/program files/microchip/xc32/v4.35/bin/bin/../../lib/gcc/pic32mx/8.3.1/../../../../pic32mx/lib/fpu64\libc-musl.a(__init_stdio.o)
 .xc_stack_usage.hdr
                0x0000000000000000        0xe c:/program files/microchip/xc32/v4.35/bin/bin/../../lib/gcc/pic32mx/8.3.1/../../../../pic32mx/lib/fpu64\libc-musl.a(__init_stdio.o)
 .note.GNU-stack
                0x0000000000000000        0x0 c:/program files/microchip/xc32/v4.35/bin/bin/../../lib/gcc/pic32mx/8.3.1/../../../../pic32mx/lib/fpu64\libc-musl.a(__init_stdio.o)
 .text          0x0000000000000000        0x0 c:/program files/microchip/xc32/v4.35/bin/bin/../../lib/gcc/pic32mx/8.3.1/../../../../pic32mx/lib/fpu64\libc-musl.a(__io_buf_needed.o)
 .data          0x0000000000000000        0x0 c:/program files/microchip/xc32/v4.35/bin/bin/../../lib/gcc/pic32mx/8.3.1/../../../../pic32mx/lib/fpu64\libc-musl.a(__io_buf_needed.o)
 .bss           0x0000000000000000        0x0 c:/program files/microchip/xc32/v4.35/bin/bin/../../lib/gcc/pic32mx/8.3.1/../../../../pic32mx/lib/fpu64\libc-musl.a(__io_buf_needed.o)
 .reginfo       0x0000000000000000       0x18 c:/program files/microchip/xc32/v4.35/bin/bin/../../lib/gcc/pic32mx/8.3.1/../../../../pic32mx/lib/fpu64\libc-musl.a(__io_buf_needed.o)
 .MIPS.abiflags
                0x0000000000000000       0x18 c:/program files/microchip/xc32/v4.35/bin/bin/../../lib/gcc/pic32mx/8.3.1/../../../../pic32mx/lib/fpu64\libc-musl.a(__io_buf_needed.o)
 .xc_stack_usage
                0x0000000000000000       0x1d c:/program files/microchip/xc32/v4.35/bin/bin/../../lib/gcc/pic32mx/8.3.1/../../../../pic32mx/lib/fpu64\libc-musl.a(__io_buf_needed.o)
 .xc_stack_usage.hdr
                0x0000000000000000        0xe c:/program files/microchip/xc32/v4.35/bin/bin/../../lib/gcc/pic32mx/8.3.1/../../../../pic32mx/lib/fpu64\libc-musl.a(__io_buf_needed.o)
 .note.GNU-stack
                0x0000000000000000        0x0 c:/program files/microchip/xc32/v4.35/bin/bin/../../lib/gcc/pic32mx/8.3.1/../../../../pic32mx/lib/fpu64\libc-musl.a(__io_buf_needed.o)
 .text          0x0000000000000000        0x0 c:/program files/microchip/xc32/v4.35/bin/bin/../../lib/gcc/pic32mx/8.3.1/../../../../pic32mx/lib/fpu64\libc-musl.a(__io_file_needed.o)
 .data          0x0000000000000000        0x0 c:/program files/microchip/xc32/v4.35/bin/bin/../../lib/gcc/pic32mx/8.3.1/../../../../pic32mx/lib/fpu64\libc-musl.a(__io_file_needed.o)
 .bss           0x0000000000000000        0x0 c:/program files/microchip/xc32/v4.35/bin/bin/../../lib/gcc/pic32mx/8.3.1/../../../../pic32mx/lib/fpu64\libc-musl.a(__io_file_needed.o)
 .reginfo       0x0000000000000000       0x18 c:/program files/microchip/xc32/v4.35/bin/bin/../../lib/gcc/pic32mx/8.3.1/../../../../pic32mx/lib/fpu64\libc-musl.a(__io_file_needed.o)
 .MIPS.abiflags
                0x0000000000000000       0x18 c:/program files/microchip/xc32/v4.35/bin/bin/../../lib/gcc/pic32mx/8.3.1/../../../../pic32mx/lib/fpu64\libc-musl.a(__io_file_needed.o)
 .xc_stack_usage
                0x0000000000000000       0x1e c:/program files/microchip/xc32/v4.35/bin/bin/../../lib/gcc/pic32mx/8.3.1/../../../../pic32mx/lib/fpu64\libc-musl.a(__io_file_needed.o)
 .xc_stack_usage.hdr
                0x0000000000000000        0xe c:/program files/microchip/xc32/v4.35/bin/bin/../../lib/gcc/pic32mx/8.3.1/../../../../pic32mx/lib/fpu64\libc-musl.a(__io_file_needed.o)
 .note.GNU-stack
                0x0000000000000000        0x0 c:/program files/microchip/xc32/v4.35/bin/bin/../../lib/gcc/pic32mx/8.3.1/../../../../pic32mx/lib/fpu64\libc-musl.a(__io_file_needed.o)
 .text          0x0000000000000000        0x0 c:/program files/microchip/xc32/v4.35/bin/bin/../../lib/gcc/pic32mx/8.3.1/../../../../pic32mx/lib/fpu64\libc-musl.a(__io_std_needed.o)
 .data          0x0000000000000000        0x0 c:/program files/microchip/xc32/v4.35/bin/bin/../../lib/gcc/pic32mx/8.3.1/../../../../pic32mx/lib/fpu64\libc-musl.a(__io_std_needed.o)
 .bss           0x0000000000000000        0x0 c:/program files/microchip/xc32/v4.35/bin/bin/../../lib/gcc/pic32mx/8.3.1/../../../../pic32mx/lib/fpu64\libc-musl.a(__io_std_needed.o)
 .reginfo       0x0000000000000000       0x18 c:/program files/microchip/xc32/v4.35/bin/bin/../../lib/gcc/pic32mx/8.3.1/../../../../pic32mx/lib/fpu64\libc-musl.a(__io_std_needed.o)
 .MIPS.abiflags
                0x0000000000000000       0x18 c:/program files/microchip/xc32/v4.35/bin/bin/../../lib/gcc/pic32mx/8.3.1/../../../../pic32mx/lib/fpu64\libc-musl.a(__io_std_needed.o)
 .xc_stack_usage
                0x0000000000000000       0x1d c:/program files/microchip/xc32/v4.35/bin/bin/../../lib/gcc/pic32mx/8.3.1/../../../../pic32mx/lib/fpu64\libc-musl.a(__io_std_needed.o)
 .xc_stack_usage.hdr
                0x0000000000000000        0xe c:/program files/microchip/xc32/v4.35/bin/bin/../../lib/gcc/pic32mx/8.3.1/../../../../pic32mx/lib/fpu64\libc-musl.a(__io_std_needed.o)
 .note.GNU-stack
                0x0000000000000000        0x0 c:/program files/microchip/xc32/v4.35/bin/bin/../../lib/gcc/pic32mx/8.3.1/../../../../pic32mx/lib/fpu64\libc-musl.a(__io_std_needed.o)
 .text          0x0000000000000000        0x0 c:/program files/microchip/xc32/v4.35/bin/bin/../../lib/gcc/pic32mx/8.3.1/../../../../pic32mx/lib/fpu64\libc-musl.a(__putc.o)
 .data          0x0000000000000000        0x0 c:/program files/microchip/xc32/v4.35/bin/bin/../../lib/gcc/pic32mx/8.3.1/../../../../pic32mx/lib/fpu64\libc-musl.a(__putc.o)
 .bss           0x0000000000000000        0x0 c:/program files/microchip/xc32/v4.35/bin/bin/../../lib/gcc/pic32mx/8.3.1/../../../../pic32mx/lib/fpu64\libc-musl.a(__putc.o)
 .reginfo       0x0000000000000000       0x18 c:/program files/microchip/xc32/v4.35/bin/bin/../../lib/gcc/pic32mx/8.3.1/../../../../pic32mx/lib/fpu64\libc-musl.a(__putc.o)
 .MIPS.abiflags
                0x0000000000000000       0x18 c:/program files/microchip/xc32/v4.35/bin/bin/../../lib/gcc/pic32mx/8.3.1/../../../../pic32mx/lib/fpu64\libc-musl.a(__putc.o)
 .xc_stack_usage
                0x0000000000000000       0x14 c:/program files/microchip/xc32/v4.35/bin/bin/../../lib/gcc/pic32mx/8.3.1/../../../../pic32mx/lib/fpu64\libc-musl.a(__putc.o)
 .xc_stack_usage.hdr
                0x0000000000000000        0xe c:/program files/microchip/xc32/v4.35/bin/bin/../../lib/gcc/pic32mx/8.3.1/../../../../pic32mx/lib/fpu64\libc-musl.a(__putc.o)
 .note.GNU-stack
                0x0000000000000000        0x0 c:/program files/microchip/xc32/v4.35/bin/bin/../../lib/gcc/pic32mx/8.3.1/../../../../pic32mx/lib/fpu64\libc-musl.a(__putc.o)
 .text          0x0000000000000000        0x0 c:/program files/microchip/xc32/v4.35/bin/bin/../../lib/gcc/pic32mx/8.3.1/../../../../pic32mx/lib/fpu64\libc-musl.a(__stderr.o)
 .data          0x0000000000000000       0x60 c:/program files/microchip/xc32/v4.35/bin/bin/../../lib/gcc/pic32mx/8.3.1/../../../../pic32mx/lib/fpu64\libc-musl.a(__stderr.o)
 .bss           0x0000000000000000        0x0 c:/program files/microchip/xc32/v4.35/bin/bin/../../lib/gcc/pic32mx/8.3.1/../../../../pic32mx/lib/fpu64\libc-musl.a(__stderr.o)
 .reginfo       0x0000000000000000       0x18 c:/program files/microchip/xc32/v4.35/bin/bin/../../lib/gcc/pic32mx/8.3.1/../../../../pic32mx/lib/fpu64\libc-musl.a(__stderr.o)
 .MIPS.abiflags
                0x0000000000000000       0x18 c:/program files/microchip/xc32/v4.35/bin/bin/../../lib/gcc/pic32mx/8.3.1/../../../../pic32mx/lib/fpu64\libc-musl.a(__stderr.o)
 .xc_stack_usage
                0x0000000000000000       0x50 c:/program files/microchip/xc32/v4.35/bin/bin/../../lib/gcc/pic32mx/8.3.1/../../../../pic32mx/lib/fpu64\libc-musl.a(__stderr.o)
 .text.__dummy  0x0000000000000000        0x8 c:/program files/microchip/xc32/v4.35/bin/bin/../../lib/gcc/pic32mx/8.3.1/../../../../pic32mx/lib/fpu64\libc-musl.a(__stderr.o)
 .text.__get_stderr
                0x0000000000000000        0xc c:/program files/microchip/xc32/v4.35/bin/bin/../../lib/gcc/pic32mx/8.3.1/../../../../pic32mx/lib/fpu64\libc-musl.a(__stderr.o)
 .xc_stack_usage.hdr
                0x0000000000000000        0xe c:/program files/microchip/xc32/v4.35/bin/bin/../../lib/gcc/pic32mx/8.3.1/../../../../pic32mx/lib/fpu64\libc-musl.a(__stderr.o)
 .note.GNU-stack
                0x0000000000000000        0x0 c:/program files/microchip/xc32/v4.35/bin/bin/../../lib/gcc/pic32mx/8.3.1/../../../../pic32mx/lib/fpu64\libc-musl.a(__stderr.o)
 .text          0x0000000000000000        0x0 c:/program files/microchip/xc32/v4.35/bin/bin/../../lib/gcc/pic32mx/8.3.1/../../../../pic32mx/lib/fpu64\libc-musl.a(__stdio_exit.o)
 .data          0x0000000000000000        0x0 c:/program files/microchip/xc32/v4.35/bin/bin/../../lib/gcc/pic32mx/8.3.1/../../../../pic32mx/lib/fpu64\libc-musl.a(__stdio_exit.o)
 .bss           0x0000000000000000        0x4 c:/program files/microchip/xc32/v4.35/bin/bin/../../lib/gcc/pic32mx/8.3.1/../../../../pic32mx/lib/fpu64\libc-musl.a(__stdio_exit.o)
 .reginfo       0x0000000000000000       0x18 c:/program files/microchip/xc32/v4.35/bin/bin/../../lib/gcc/pic32mx/8.3.1/../../../../pic32mx/lib/fpu64\libc-musl.a(__stdio_exit.o)
 .MIPS.abiflags
                0x0000000000000000       0x18 c:/program files/microchip/xc32/v4.35/bin/bin/../../lib/gcc/pic32mx/8.3.1/../../../../pic32mx/lib/fpu64\libc-musl.a(__stdio_exit.o)
 .xc_stack_usage
                0x0000000000000000       0x45 c:/program files/microchip/xc32/v4.35/bin/bin/../../lib/gcc/pic32mx/8.3.1/../../../../pic32mx/lib/fpu64\libc-musl.a(__stdio_exit.o)
 .text.__dummy  0x0000000000000000        0x8 c:/program files/microchip/xc32/v4.35/bin/bin/../../lib/gcc/pic32mx/8.3.1/../../../../pic32mx/lib/fpu64\libc-musl.a(__stdio_exit.o)
 .text.__dummy1
                0x0000000000000000        0x8 c:/program files/microchip/xc32/v4.35/bin/bin/../../lib/gcc/pic32mx/8.3.1/../../../../pic32mx/lib/fpu64\libc-musl.a(__stdio_exit.o)
 .text.__stdio_exit
                0x0000000000000000       0x4c c:/program files/microchip/xc32/v4.35/bin/bin/../../lib/gcc/pic32mx/8.3.1/../../../../pic32mx/lib/fpu64\libc-musl.a(__stdio_exit.o)
 .xc_stack_usage.hdr
                0x0000000000000000        0xe c:/program files/microchip/xc32/v4.35/bin/bin/../../lib/gcc/pic32mx/8.3.1/../../../../pic32mx/lib/fpu64\libc-musl.a(__stdio_exit.o)
 .note.GNU-stack
                0x0000000000000000        0x0 c:/program files/microchip/xc32/v4.35/bin/bin/../../lib/gcc/pic32mx/8.3.1/../../../../pic32mx/lib/fpu64\libc-musl.a(__stdio_exit.o)
 .text          0x0000000000000000        0x0 c:/program files/microchip/xc32/v4.35/bin/bin/../../lib/gcc/pic32mx/8.3.1/../../../../pic32mx/lib/fpu64\libc-musl.a(__stdio_write.o)
 .data          0x0000000000000000        0x0 c:/program files/microchip/xc32/v4.35/bin/bin/../../lib/gcc/pic32mx/8.3.1/../../../../pic32mx/lib/fpu64\libc-musl.a(__stdio_write.o)
 .bss           0x0000000000000000        0x0 c:/program files/microchip/xc32/v4.35/bin/bin/../../lib/gcc/pic32mx/8.3.1/../../../../pic32mx/lib/fpu64\libc-musl.a(__stdio_write.o)
 .reginfo       0x0000000000000000       0x18 c:/program files/microchip/xc32/v4.35/bin/bin/../../lib/gcc/pic32mx/8.3.1/../../../../pic32mx/lib/fpu64\libc-musl.a(__stdio_write.o)
 .MIPS.abiflags
                0x0000000000000000       0x18 c:/program files/microchip/xc32/v4.35/bin/bin/../../lib/gcc/pic32mx/8.3.1/../../../../pic32mx/lib/fpu64\libc-musl.a(__stdio_write.o)
 .xc_stack_usage
                0x0000000000000000       0x42 c:/program files/microchip/xc32/v4.35/bin/bin/../../lib/gcc/pic32mx/8.3.1/../../../../pic32mx/lib/fpu64\libc-musl.a(__stdio_write.o)
 .xc_stack_usage.hdr
                0x0000000000000000        0xe c:/program files/microchip/xc32/v4.35/bin/bin/../../lib/gcc/pic32mx/8.3.1/../../../../pic32mx/lib/fpu64\libc-musl.a(__stdio_write.o)
 .note.GNU-stack
                0x0000000000000000        0x0 c:/program files/microchip/xc32/v4.35/bin/bin/../../lib/gcc/pic32mx/8.3.1/../../../../pic32mx/lib/fpu64\libc-musl.a(__stdio_write.o)
 .text          0x0000000000000000        0x0 c:/program files/microchip/xc32/v4.35/bin/bin/../../lib/gcc/pic32mx/8.3.1/../../../../pic32mx/lib/fpu64\libc-musl.a(__stdout.o)
 .data          0x0000000000000000       0x60 c:/program files/microchip/xc32/v4.35/bin/bin/../../lib/gcc/pic32mx/8.3.1/../../../../pic32mx/lib/fpu64\libc-musl.a(__stdout.o)
 .bss           0x0000000000000000        0x0 c:/program files/microchip/xc32/v4.35/bin/bin/../../lib/gcc/pic32mx/8.3.1/../../../../pic32mx/lib/fpu64\libc-musl.a(__stdout.o)
 .reginfo       0x0000000000000000       0x18 c:/program files/microchip/xc32/v4.35/bin/bin/../../lib/gcc/pic32mx/8.3.1/../../../../pic32mx/lib/fpu64\libc-musl.a(__stdout.o)
 .MIPS.abiflags
                0x0000000000000000       0x18 c:/program files/microchip/xc32/v4.35/bin/bin/../../lib/gcc/pic32mx/8.3.1/../../../../pic32mx/lib/fpu64\libc-musl.a(__stdout.o)
 .xc_stack_usage
                0x0000000000000000       0x50 c:/program files/microchip/xc32/v4.35/bin/bin/../../lib/gcc/pic32mx/8.3.1/../../../../pic32mx/lib/fpu64\libc-musl.a(__stdout.o)
 .text.__dummy  0x0000000000000000        0x8 c:/program files/microchip/xc32/v4.35/bin/bin/../../lib/gcc/pic32mx/8.3.1/../../../../pic32mx/lib/fpu64\libc-musl.a(__stdout.o)
 .text.__get_stdout
                0x0000000000000000        0xc c:/program files/microchip/xc32/v4.35/bin/bin/../../lib/gcc/pic32mx/8.3.1/../../../../pic32mx/lib/fpu64\libc-musl.a(__stdout.o)
 .xc_stack_usage.hdr
                0x0000000000000000        0xe c:/program files/microchip/xc32/v4.35/bin/bin/../../lib/gcc/pic32mx/8.3.1/../../../../pic32mx/lib/fpu64\libc-musl.a(__stdout.o)
 .note.GNU-stack
                0x0000000000000000        0x0 c:/program files/microchip/xc32/v4.35/bin/bin/../../lib/gcc/pic32mx/8.3.1/../../../../pic32mx/lib/fpu64\libc-musl.a(__stdout.o)
 .text          0x0000000000000000        0x0 c:/program files/microchip/xc32/v4.35/bin/bin/../../lib/gcc/pic32mx/8.3.1/../../../../pic32mx/lib/fpu64\libc-musl.a(__towrite.o)
 .data          0x0000000000000000        0x0 c:/program files/microchip/xc32/v4.35/bin/bin/../../lib/gcc/pic32mx/8.3.1/../../../../pic32mx/lib/fpu64\libc-musl.a(__towrite.o)
 .bss           0x0000000000000000        0x0 c:/program files/microchip/xc32/v4.35/bin/bin/../../lib/gcc/pic32mx/8.3.1/../../../../pic32mx/lib/fpu64\libc-musl.a(__towrite.o)
 .reginfo       0x0000000000000000       0x18 c:/program files/microchip/xc32/v4.35/bin/bin/../../lib/gcc/pic32mx/8.3.1/../../../../pic32mx/lib/fpu64\libc-musl.a(__towrite.o)
 .MIPS.abiflags
                0x0000000000000000       0x18 c:/program files/microchip/xc32/v4.35/bin/bin/../../lib/gcc/pic32mx/8.3.1/../../../../pic32mx/lib/fpu64\libc-musl.a(__towrite.o)
 .xc_stack_usage
                0x0000000000000000       0x2c c:/program files/microchip/xc32/v4.35/bin/bin/../../lib/gcc/pic32mx/8.3.1/../../../../pic32mx/lib/fpu64\libc-musl.a(__towrite.o)
 .text.__dummy  0x0000000000000000        0x8 c:/program files/microchip/xc32/v4.35/bin/bin/../../lib/gcc/pic32mx/8.3.1/../../../../pic32mx/lib/fpu64\libc-musl.a(__towrite.o)
 .xc_stack_usage.hdr
                0x0000000000000000        0xe c:/program files/microchip/xc32/v4.35/bin/bin/../../lib/gcc/pic32mx/8.3.1/../../../../pic32mx/lib/fpu64\libc-musl.a(__towrite.o)
 .note.GNU-stack
                0x0000000000000000        0x0 c:/program files/microchip/xc32/v4.35/bin/bin/../../lib/gcc/pic32mx/8.3.1/../../../../pic32mx/lib/fpu64\libc-musl.a(__towrite.o)
 .text          0x0000000000000000        0x0 c:/program files/microchip/xc32/v4.35/bin/bin/../../lib/gcc/pic32mx/8.3.1/../../../../pic32mx/lib/fpu64\libc-musl.a(writev.o)
 .data          0x0000000000000000        0x0 c:/program files/microchip/xc32/v4.35/bin/bin/../../lib/gcc/pic32mx/8.3.1/../../../../pic32mx/lib/fpu64\libc-musl.a(writev.o)
 .bss           0x0000000000000000        0x0 c:/program files/microchip/xc32/v4.35/bin/bin/../../lib/gcc/pic32mx/8.3.1/../../../../pic32mx/lib/fpu64\libc-musl.a(writev.o)
 .reginfo       0x0000000000000000       0x18 c:/program files/microchip/xc32/v4.35/bin/bin/../../lib/gcc/pic32mx/8.3.1/../../../../pic32mx/lib/fpu64\libc-musl.a(writev.o)
 .MIPS.abiflags
                0x0000000000000000       0x18 c:/program files/microchip/xc32/v4.35/bin/bin/../../lib/gcc/pic32mx/8.3.1/../../../../pic32mx/lib/fpu64\libc-musl.a(writev.o)
 .xc_stack_usage
                0x0000000000000000       0x16 c:/program files/microchip/xc32/v4.35/bin/bin/../../lib/gcc/pic32mx/8.3.1/../../../../pic32mx/lib/fpu64\libc-musl.a(writev.o)
 .xc_stack_usage.hdr
                0x0000000000000000        0xe c:/program files/microchip/xc32/v4.35/bin/bin/../../lib/gcc/pic32mx/8.3.1/../../../../pic32mx/lib/fpu64\libc-musl.a(writev.o)
 .note.GNU-stack
                0x0000000000000000        0x0 c:/program files/microchip/xc32/v4.35/bin/bin/../../lib/gcc/pic32mx/8.3.1/../../../../pic32mx/lib/fpu64\libc-musl.a(writev.o)
 .text          0x0000000000000000        0x0 c:/program files/microchip/xc32/v4.35/bin/bin/../../lib/gcc/pic32mx/8.3.1/../../../../pic32mx/lib/fpu64\libc-musl.a(libc.o)
 .data          0x0000000000000000        0x0 c:/program files/microchip/xc32/v4.35/bin/bin/../../lib/gcc/pic32mx/8.3.1/../../../../pic32mx/lib/fpu64\libc-musl.a(libc.o)
 .reginfo       0x0000000000000000       0x18 c:/program files/microchip/xc32/v4.35/bin/bin/../../lib/gcc/pic32mx/8.3.1/../../../../pic32mx/lib/fpu64\libc-musl.a(libc.o)
 .MIPS.abiflags
                0x0000000000000000       0x18 c:/program files/microchip/xc32/v4.35/bin/bin/../../lib/gcc/pic32mx/8.3.1/../../../../pic32mx/lib/fpu64\libc-musl.a(libc.o)
 .xc_stack_usage.hdr
                0x0000000000000000        0xe c:/program files/microchip/xc32/v4.35/bin/bin/../../lib/gcc/pic32mx/8.3.1/../../../../pic32mx/lib/fpu64\libc-musl.a(libc.o)
 .note.GNU-stack
                0x0000000000000000        0x0 c:/program files/microchip/xc32/v4.35/bin/bin/../../lib/gcc/pic32mx/8.3.1/../../../../pic32mx/lib/fpu64\libc-musl.a(libc.o)
 .text          0x0000000000000000        0x0 c:/program files/microchip/xc32/v4.35/bin/bin/../../lib/gcc/pic32mx/8.3.1/../../../../pic32mx/lib/fpu64\libc-musl.a(__overflow.o)
 .data          0x0000000000000000        0x0 c:/program files/microchip/xc32/v4.35/bin/bin/../../lib/gcc/pic32mx/8.3.1/../../../../pic32mx/lib/fpu64\libc-musl.a(__overflow.o)
 .bss           0x0000000000000000        0x0 c:/program files/microchip/xc32/v4.35/bin/bin/../../lib/gcc/pic32mx/8.3.1/../../../../pic32mx/lib/fpu64\libc-musl.a(__overflow.o)
 .reginfo       0x0000000000000000       0x18 c:/program files/microchip/xc32/v4.35/bin/bin/../../lib/gcc/pic32mx/8.3.1/../../../../pic32mx/lib/fpu64\libc-musl.a(__overflow.o)
 .MIPS.abiflags
                0x0000000000000000       0x18 c:/program files/microchip/xc32/v4.35/bin/bin/../../lib/gcc/pic32mx/8.3.1/../../../../pic32mx/lib/fpu64\libc-musl.a(__overflow.o)
 .xc_stack_usage
                0x0000000000000000       0x18 c:/program files/microchip/xc32/v4.35/bin/bin/../../lib/gcc/pic32mx/8.3.1/../../../../pic32mx/lib/fpu64\libc-musl.a(__overflow.o)
 .xc_stack_usage.hdr
                0x0000000000000000        0xe c:/program files/microchip/xc32/v4.35/bin/bin/../../lib/gcc/pic32mx/8.3.1/../../../../pic32mx/lib/fpu64\libc-musl.a(__overflow.o)
 .note.GNU-stack
                0x0000000000000000        0x0 c:/program files/microchip/xc32/v4.35/bin/bin/../../lib/gcc/pic32mx/8.3.1/../../../../pic32mx/lib/fpu64\libc-musl.a(__overflow.o)
 .text          0x0000000000000000        0x0 c:/program files/microchip/xc32/v4.35/bin/bin/../../lib/gcc/pic32mx/8.3.1/../../../../pic32mx/lib/fpu64\libc-musl.a(__fclose.o)
 .data          0x0000000000000000        0x0 c:/program files/microchip/xc32/v4.35/bin/bin/../../lib/gcc/pic32mx/8.3.1/../../../../pic32mx/lib/fpu64\libc-musl.a(__fclose.o)
 .bss           0x0000000000000000        0x0 c:/program files/microchip/xc32/v4.35/bin/bin/../../lib/gcc/pic32mx/8.3.1/../../../../pic32mx/lib/fpu64\libc-musl.a(__fclose.o)
 .reginfo       0x0000000000000000       0x18 c:/program files/microchip/xc32/v4.35/bin/bin/../../lib/gcc/pic32mx/8.3.1/../../../../pic32mx/lib/fpu64\libc-musl.a(__fclose.o)
 .MIPS.abiflags
                0x0000000000000000       0x18 c:/program files/microchip/xc32/v4.35/bin/bin/../../lib/gcc/pic32mx/8.3.1/../../../../pic32mx/lib/fpu64\libc-musl.a(__fclose.o)
 .xc_stack_usage
                0x0000000000000000       0x16 c:/program files/microchip/xc32/v4.35/bin/bin/../../lib/gcc/pic32mx/8.3.1/../../../../pic32mx/lib/fpu64\libc-musl.a(__fclose.o)
 .xc_stack_usage.hdr
                0x0000000000000000        0xe c:/program files/microchip/xc32/v4.35/bin/bin/../../lib/gcc/pic32mx/8.3.1/../../../../pic32mx/lib/fpu64\libc-musl.a(__fclose.o)
 .note.GNU-stack
                0x0000000000000000        0x0 c:/program files/microchip/xc32/v4.35/bin/bin/../../lib/gcc/pic32mx/8.3.1/../../../../pic32mx/lib/fpu64\libc-musl.a(__fclose.o)
 .text          0x0000000000000000        0x0 c:/program files/microchip/xc32/v4.35/bin/bin/../../lib/gcc/pic32mx/8.3.1/../../../../pic32mx/lib/fpu64\libc-musl.a(__fopen.o)
 .data          0x0000000000000000        0x0 c:/program files/microchip/xc32/v4.35/bin/bin/../../lib/gcc/pic32mx/8.3.1/../../../../pic32mx/lib/fpu64\libc-musl.a(__fopen.o)
 .bss           0x0000000000000000        0x0 c:/program files/microchip/xc32/v4.35/bin/bin/../../lib/gcc/pic32mx/8.3.1/../../../../pic32mx/lib/fpu64\libc-musl.a(__fopen.o)
 .reginfo       0x0000000000000000       0x18 c:/program files/microchip/xc32/v4.35/bin/bin/../../lib/gcc/pic32mx/8.3.1/../../../../pic32mx/lib/fpu64\libc-musl.a(__fopen.o)
 .MIPS.abiflags
                0x0000000000000000       0x18 c:/program files/microchip/xc32/v4.35/bin/bin/../../lib/gcc/pic32mx/8.3.1/../../../../pic32mx/lib/fpu64\libc-musl.a(__fopen.o)
 .xc_stack_usage
                0x0000000000000000       0x43 c:/program files/microchip/xc32/v4.35/bin/bin/../../lib/gcc/pic32mx/8.3.1/../../../../pic32mx/lib/fpu64\libc-musl.a(__fopen.o)
 .text.__dummy  0x0000000000000000        0x8 c:/program files/microchip/xc32/v4.35/bin/bin/../../lib/gcc/pic32mx/8.3.1/../../../../pic32mx/lib/fpu64\libc-musl.a(__fopen.o)
 .text.__fopen_std
                0x0000000000000000       0x60 c:/program files/microchip/xc32/v4.35/bin/bin/../../lib/gcc/pic32mx/8.3.1/../../../../pic32mx/lib/fpu64\libc-musl.a(__fopen.o)
 .text.__fopen  0x0000000000000000       0x1c c:/program files/microchip/xc32/v4.35/bin/bin/../../lib/gcc/pic32mx/8.3.1/../../../../pic32mx/lib/fpu64\libc-musl.a(__fopen.o)
 .xc_stack_usage.hdr
                0x0000000000000000        0xe c:/program files/microchip/xc32/v4.35/bin/bin/../../lib/gcc/pic32mx/8.3.1/../../../../pic32mx/lib/fpu64\libc-musl.a(__fopen.o)
 .note.GNU-stack
                0x0000000000000000        0x0 c:/program files/microchip/xc32/v4.35/bin/bin/../../lib/gcc/pic32mx/8.3.1/../../../../pic32mx/lib/fpu64\libc-musl.a(__fopen.o)
 .text          0x0000000000000000        0x0 c:/program files/microchip/xc32/v4.35/bin/bin/../../lib/gcc/pic32mx/8.3.1/../../../../pic32mx/lib/fpu64\libc-musl.a(__fseeko.o)
 .data          0x0000000000000000        0x0 c:/program files/microchip/xc32/v4.35/bin/bin/../../lib/gcc/pic32mx/8.3.1/../../../../pic32mx/lib/fpu64\libc-musl.a(__fseeko.o)
 .bss           0x0000000000000000        0x0 c:/program files/microchip/xc32/v4.35/bin/bin/../../lib/gcc/pic32mx/8.3.1/../../../../pic32mx/lib/fpu64\libc-musl.a(__fseeko.o)
 .reginfo       0x0000000000000000       0x18 c:/program files/microchip/xc32/v4.35/bin/bin/../../lib/gcc/pic32mx/8.3.1/../../../../pic32mx/lib/fpu64\libc-musl.a(__fseeko.o)
 .MIPS.abiflags
                0x0000000000000000       0x18 c:/program files/microchip/xc32/v4.35/bin/bin/../../lib/gcc/pic32mx/8.3.1/../../../../pic32mx/lib/fpu64\libc-musl.a(__fseeko.o)
 .xc_stack_usage
                0x0000000000000000       0x16 c:/program files/microchip/xc32/v4.35/bin/bin/../../lib/gcc/pic32mx/8.3.1/../../../../pic32mx/lib/fpu64\libc-musl.a(__fseeko.o)
 .text.__fseeko
                0x0000000000000000       0x20 c:/program files/microchip/xc32/v4.35/bin/bin/../../lib/gcc/pic32mx/8.3.1/../../../../pic32mx/lib/fpu64\libc-musl.a(__fseeko.o)
 .xc_stack_usage.hdr
                0x0000000000000000        0xe c:/program files/microchip/xc32/v4.35/bin/bin/../../lib/gcc/pic32mx/8.3.1/../../../../pic32mx/lib/fpu64\libc-musl.a(__fseeko.o)
 .note.GNU-stack
                0x0000000000000000        0x0 c:/program files/microchip/xc32/v4.35/bin/bin/../../lib/gcc/pic32mx/8.3.1/../../../../pic32mx/lib/fpu64\libc-musl.a(__fseeko.o)
 .text          0x0000000000000000        0x0 c:/program files/microchip/xc32/v4.35/bin/bin/../../lib/gcc/pic32mx/8.3.1/../../../../pic32mx/lib/fpu64\libc-musl.a(__ftello.o)
 .data          0x0000000000000000        0x0 c:/program files/microchip/xc32/v4.35/bin/bin/../../lib/gcc/pic32mx/8.3.1/../../../../pic32mx/lib/fpu64\libc-musl.a(__ftello.o)
 .bss           0x0000000000000000        0x0 c:/program files/microchip/xc32/v4.35/bin/bin/../../lib/gcc/pic32mx/8.3.1/../../../../pic32mx/lib/fpu64\libc-musl.a(__ftello.o)
 .reginfo       0x0000000000000000       0x18 c:/program files/microchip/xc32/v4.35/bin/bin/../../lib/gcc/pic32mx/8.3.1/../../../../pic32mx/lib/fpu64\libc-musl.a(__ftello.o)
 .MIPS.abiflags
                0x0000000000000000       0x18 c:/program files/microchip/xc32/v4.35/bin/bin/../../lib/gcc/pic32mx/8.3.1/../../../../pic32mx/lib/fpu64\libc-musl.a(__ftello.o)
 .xc_stack_usage
                0x0000000000000000       0x2f c:/program files/microchip/xc32/v4.35/bin/bin/../../lib/gcc/pic32mx/8.3.1/../../../../pic32mx/lib/fpu64\libc-musl.a(__ftello.o)
 .text.__dummy  0x0000000000000000       0x2c c:/program files/microchip/xc32/v4.35/bin/bin/../../lib/gcc/pic32mx/8.3.1/../../../../pic32mx/lib/fpu64\libc-musl.a(__ftello.o)
 .text.__ftello_adj
                0x0000000000000000       0x1c c:/program files/microchip/xc32/v4.35/bin/bin/../../lib/gcc/pic32mx/8.3.1/../../../../pic32mx/lib/fpu64\libc-musl.a(__ftello.o)
 .xc_stack_usage.hdr
                0x0000000000000000        0xe c:/program files/microchip/xc32/v4.35/bin/bin/../../lib/gcc/pic32mx/8.3.1/../../../../pic32mx/lib/fpu64\libc-musl.a(__ftello.o)
 .note.GNU-stack
                0x0000000000000000        0x0 c:/program files/microchip/xc32/v4.35/bin/bin/../../lib/gcc/pic32mx/8.3.1/../../../../pic32mx/lib/fpu64\libc-musl.a(__ftello.o)
 .text          0x0000000000000000        0x0 c:/program files/microchip/xc32/v4.35/bin/bin/../../lib/gcc/pic32mx/8.3.1/../../../../pic32mx/lib/fpu64\libc-musl.a(__fwrite.o)
 .data          0x0000000000000000        0x0 c:/program files/microchip/xc32/v4.35/bin/bin/../../lib/gcc/pic32mx/8.3.1/../../../../pic32mx/lib/fpu64\libc-musl.a(__fwrite.o)
 .bss           0x0000000000000000        0x0 c:/program files/microchip/xc32/v4.35/bin/bin/../../lib/gcc/pic32mx/8.3.1/../../../../pic32mx/lib/fpu64\libc-musl.a(__fwrite.o)
 .reginfo       0x0000000000000000       0x18 c:/program files/microchip/xc32/v4.35/bin/bin/../../lib/gcc/pic32mx/8.3.1/../../../../pic32mx/lib/fpu64\libc-musl.a(__fwrite.o)
 .MIPS.abiflags
                0x0000000000000000       0x18 c:/program files/microchip/xc32/v4.35/bin/bin/../../lib/gcc/pic32mx/8.3.1/../../../../pic32mx/lib/fpu64\libc-musl.a(__fwrite.o)
 .xc_stack_usage
                0x0000000000000000       0x36 c:/program files/microchip/xc32/v4.35/bin/bin/../../lib/gcc/pic32mx/8.3.1/../../../../pic32mx/lib/fpu64\libc-musl.a(__fwrite.o)
 .xc_stack_usage.hdr
                0x0000000000000000        0xe c:/program files/microchip/xc32/v4.35/bin/bin/../../lib/gcc/pic32mx/8.3.1/../../../../pic32mx/lib/fpu64\libc-musl.a(__fwrite.o)
 .note.GNU-stack
                0x0000000000000000        0x0 c:/program files/microchip/xc32/v4.35/bin/bin/../../lib/gcc/pic32mx/8.3.1/../../../../pic32mx/lib/fpu64\libc-musl.a(__fwrite.o)
 .data          0x0000000000000000        0x0 c:/program files/microchip/xc32/v4.35/bin/bin/../../lib/gcc/pic32mx/8.3.1/fpu64\libgcc.a(_lshrdi3.o)
 .bss           0x0000000000000000        0x0 c:/program files/microchip/xc32/v4.35/bin/bin/../../lib/gcc/pic32mx/8.3.1/fpu64\libgcc.a(_lshrdi3.o)
 .reginfo       0x0000000000000000       0x18 c:/program files/microchip/xc32/v4.35/bin/bin/../../lib/gcc/pic32mx/8.3.1/fpu64\libgcc.a(_lshrdi3.o)
 .MIPS.abiflags
                0x0000000000000000       0x18 c:/program files/microchip/xc32/v4.35/bin/bin/../../lib/gcc/pic32mx/8.3.1/fpu64\libgcc.a(_lshrdi3.o)
 .xc_stack_usage
                0x0000000000000000       0x17 c:/program files/microchip/xc32/v4.35/bin/bin/../../lib/gcc/pic32mx/8.3.1/fpu64\libgcc.a(_lshrdi3.o)
 .xc_stack_usage.hdr
                0x0000000000000000        0xe c:/program files/microchip/xc32/v4.35/bin/bin/../../lib/gcc/pic32mx/8.3.1/fpu64\libgcc.a(_lshrdi3.o)
 .data          0x0000000000000000        0x0 c:/program files/microchip/xc32/v4.35/bin/bin/../../lib/gcc/pic32mx/8.3.1/fpu64\libgcc.a(_ashldi3.o)
 .bss           0x0000000000000000        0x0 c:/program files/microchip/xc32/v4.35/bin/bin/../../lib/gcc/pic32mx/8.3.1/fpu64\libgcc.a(_ashldi3.o)
 .reginfo       0x0000000000000000       0x18 c:/program files/microchip/xc32/v4.35/bin/bin/../../lib/gcc/pic32mx/8.3.1/fpu64\libgcc.a(_ashldi3.o)
 .MIPS.abiflags
                0x0000000000000000       0x18 c:/program files/microchip/xc32/v4.35/bin/bin/../../lib/gcc/pic32mx/8.3.1/fpu64\libgcc.a(_ashldi3.o)
 .xc_stack_usage
                0x0000000000000000       0x17 c:/program files/microchip/xc32/v4.35/bin/bin/../../lib/gcc/pic32mx/8.3.1/fpu64\libgcc.a(_ashldi3.o)
 .xc_stack_usage.hdr
                0x0000000000000000        0xe c:/program files/microchip/xc32/v4.35/bin/bin/../../lib/gcc/pic32mx/8.3.1/fpu64\libgcc.a(_ashldi3.o)
 .data          0x0000000000000000        0x0 c:/program files/microchip/xc32/v4.35/bin/bin/../../lib/gcc/pic32mx/8.3.1/fpu64\libgcc.a(_udivdi3.o)
 .bss           0x0000000000000000        0x0 c:/program files/microchip/xc32/v4.35/bin/bin/../../lib/gcc/pic32mx/8.3.1/fpu64\libgcc.a(_udivdi3.o)
 .reginfo       0x0000000000000000       0x18 c:/program files/microchip/xc32/v4.35/bin/bin/../../lib/gcc/pic32mx/8.3.1/fpu64\libgcc.a(_udivdi3.o)
 .MIPS.abiflags
                0x0000000000000000       0x18 c:/program files/microchip/xc32/v4.35/bin/bin/../../lib/gcc/pic32mx/8.3.1/fpu64\libgcc.a(_udivdi3.o)
 .xc_stack_usage
                0x0000000000000000       0x17 c:/program files/microchip/xc32/v4.35/bin/bin/../../lib/gcc/pic32mx/8.3.1/fpu64\libgcc.a(_udivdi3.o)
 .xc_stack_usage.hdr
                0x0000000000000000        0xe c:/program files/microchip/xc32/v4.35/bin/bin/../../lib/gcc/pic32mx/8.3.1/fpu64\libgcc.a(_udivdi3.o)
 .data          0x0000000000000000        0x0 c:/program files/microchip/xc32/v4.35/bin/bin/../../lib/gcc/pic32mx/8.3.1/fpu64\libgcc.a(_umoddi3.o)
 .bss           0x0000000000000000        0x0 c:/program files/microchip/xc32/v4.35/bin/bin/../../lib/gcc/pic32mx/8.3.1/fpu64\libgcc.a(_umoddi3.o)
 .reginfo       0x0000000000000000       0x18 c:/program files/microchip/xc32/v4.35/bin/bin/../../lib/gcc/pic32mx/8.3.1/fpu64\libgcc.a(_umoddi3.o)
 .MIPS.abiflags
                0x0000000000000000       0x18 c:/program files/microchip/xc32/v4.35/bin/bin/../../lib/gcc/pic32mx/8.3.1/fpu64\libgcc.a(_umoddi3.o)
 .xc_stack_usage
                0x0000000000000000       0x17 c:/program files/microchip/xc32/v4.35/bin/bin/../../lib/gcc/pic32mx/8.3.1/fpu64\libgcc.a(_umoddi3.o)
 .xc_stack_usage.hdr
                0x0000000000000000        0xe c:/program files/microchip/xc32/v4.35/bin/bin/../../lib/gcc/pic32mx/8.3.1/fpu64\libgcc.a(_umoddi3.o)
 .text          0x0000000000000000        0x0 c:/program files/microchip/xc32/v4.35/bin/bin/../../lib/gcc/pic32mx/8.3.1/../../../../pic32mx/lib/fpu64\libpic32.a(sbrk.o)
 .data          0x0000000000000000        0x0 c:/program files/microchip/xc32/v4.35/bin/bin/../../lib/gcc/pic32mx/8.3.1/../../../../pic32mx/lib/fpu64\libpic32.a(sbrk.o)
 .reginfo       0x0000000000000000       0x18 c:/program files/microchip/xc32/v4.35/bin/bin/../../lib/gcc/pic32mx/8.3.1/../../../../pic32mx/lib/fpu64\libpic32.a(sbrk.o)
 .MIPS.abiflags
                0x0000000000000000       0x18 c:/program files/microchip/xc32/v4.35/bin/bin/../../lib/gcc/pic32mx/8.3.1/../../../../pic32mx/lib/fpu64\libpic32.a(sbrk.o)
 .xc_stack_usage
                0x0000000000000000       0x77 c:/program files/microchip/xc32/v4.35/bin/bin/../../lib/gcc/pic32mx/8.3.1/../../../../pic32mx/lib/fpu64\libpic32.a(sbrk.o)
 .text.getpagesize
                0x0000000000000000        0x8 c:/program files/microchip/xc32/v4.35/bin/bin/../../lib/gcc/pic32mx/8.3.1/../../../../pic32mx/lib/fpu64\libpic32.a(sbrk.o)
 .text.sbrk     0x0000000000000000       0x4c c:/program files/microchip/xc32/v4.35/bin/bin/../../lib/gcc/pic32mx/8.3.1/../../../../pic32mx/lib/fpu64\libpic32.a(sbrk.o)
 .xc_stack_usage.hdr
                0x0000000000000000        0xe c:/program files/microchip/xc32/v4.35/bin/bin/../../lib/gcc/pic32mx/8.3.1/../../../../pic32mx/lib/fpu64\libpic32.a(sbrk.o)
 .text          0x0000000000000000        0x0 c:/program files/microchip/xc32/v4.35/bin/bin/../../lib/gcc/pic32mx/8.3.1/../../../../pic32mx/lib/fpu64\libpic32.a(lseek.o)
 .data          0x0000000000000000        0x0 c:/program files/microchip/xc32/v4.35/bin/bin/../../lib/gcc/pic32mx/8.3.1/../../../../pic32mx/lib/fpu64\libpic32.a(lseek.o)
 .bss           0x0000000000000000        0x0 c:/program files/microchip/xc32/v4.35/bin/bin/../../lib/gcc/pic32mx/8.3.1/../../../../pic32mx/lib/fpu64\libpic32.a(lseek.o)
 .reginfo       0x0000000000000000       0x18 c:/program files/microchip/xc32/v4.35/bin/bin/../../lib/gcc/pic32mx/8.3.1/../../../../pic32mx/lib/fpu64\libpic32.a(lseek.o)
 .MIPS.abiflags
                0x0000000000000000       0x18 c:/program files/microchip/xc32/v4.35/bin/bin/../../lib/gcc/pic32mx/8.3.1/../../../../pic32mx/lib/fpu64\libpic32.a(lseek.o)
 .xc_stack_usage
                0x0000000000000000       0x13 c:/program files/microchip/xc32/v4.35/bin/bin/../../lib/gcc/pic32mx/8.3.1/../../../../pic32mx/lib/fpu64\libpic32.a(lseek.o)
 .xc_stack_usage.hdr
                0x0000000000000000        0xe c:/program files/microchip/xc32/v4.35/bin/bin/../../lib/gcc/pic32mx/8.3.1/../../../../pic32mx/lib/fpu64\libpic32.a(lseek.o)
 .text          0x0000000000000000        0x0 c:/program files/microchip/xc32/v4.35/bin/bin/../../lib/gcc/pic32mx/8.3.1/../../../../pic32mx/lib/fpu64\libpic32.a(close.o)
 .data          0x0000000000000000        0x0 c:/program files/microchip/xc32/v4.35/bin/bin/../../lib/gcc/pic32mx/8.3.1/../../../../pic32mx/lib/fpu64\libpic32.a(close.o)
 .bss           0x0000000000000000        0x0 c:/program files/microchip/xc32/v4.35/bin/bin/../../lib/gcc/pic32mx/8.3.1/../../../../pic32mx/lib/fpu64\libpic32.a(close.o)
 .reginfo       0x0000000000000000       0x18 c:/program files/microchip/xc32/v4.35/bin/bin/../../lib/gcc/pic32mx/8.3.1/../../../../pic32mx/lib/fpu64\libpic32.a(close.o)
 .MIPS.abiflags
                0x0000000000000000       0x18 c:/program files/microchip/xc32/v4.35/bin/bin/../../lib/gcc/pic32mx/8.3.1/../../../../pic32mx/lib/fpu64\libpic32.a(close.o)
 .xc_stack_usage
                0x0000000000000000       0x13 c:/program files/microchip/xc32/v4.35/bin/bin/../../lib/gcc/pic32mx/8.3.1/../../../../pic32mx/lib/fpu64\libpic32.a(close.o)
 .xc_stack_usage.hdr
                0x0000000000000000        0xe c:/program files/microchip/xc32/v4.35/bin/bin/../../lib/gcc/pic32mx/8.3.1/../../../../pic32mx/lib/fpu64\libpic32.a(close.o)
 .text          0x0000000000000000        0x0 c:/program files/microchip/xc32/v4.35/bin/bin/../../lib/gcc/pic32mx/8.3.1/../../../../pic32mx/lib/fpu64\libpic32.a(errno.o)
 .data          0x0000000000000000        0x0 c:/program files/microchip/xc32/v4.35/bin/bin/../../lib/gcc/pic32mx/8.3.1/../../../../pic32mx/lib/fpu64\libpic32.a(errno.o)
 .bss           0x0000000000000000        0x0 c:/program files/microchip/xc32/v4.35/bin/bin/../../lib/gcc/pic32mx/8.3.1/../../../../pic32mx/lib/fpu64\libpic32.a(errno.o)
 .reginfo       0x0000000000000000       0x18 c:/program files/microchip/xc32/v4.35/bin/bin/../../lib/gcc/pic32mx/8.3.1/../../../../pic32mx/lib/fpu64\libpic32.a(errno.o)
 .MIPS.abiflags
                0x0000000000000000       0x18 c:/program files/microchip/xc32/v4.35/bin/bin/../../lib/gcc/pic32mx/8.3.1/../../../../pic32mx/lib/fpu64\libpic32.a(errno.o)
 .xc_stack_usage.hdr
                0x0000000000000000        0xe c:/program files/microchip/xc32/v4.35/bin/bin/../../lib/gcc/pic32mx/8.3.1/../../../../pic32mx/lib/fpu64\libpic32.a(errno.o)
 .data          0x0000000000000000        0x0 c:/program files/microchip/xc32/v4.35/bin/bin/../../lib/gcc/pic32mx/8.3.1/../../../../pic32mx/lib/fpu64\libpic32.a(pic32_data_init_clear.o)
 .bss           0x0000000000000000        0x0 c:/program files/microchip/xc32/v4.35/bin/bin/../../lib/gcc/pic32mx/8.3.1/../../../../pic32mx/lib/fpu64\libpic32.a(pic32_data_init_clear.o)
 .reginfo       0x0000000000000000       0x18 c:/program files/microchip/xc32/v4.35/bin/bin/../../lib/gcc/pic32mx/8.3.1/../../../../pic32mx/lib/fpu64\libpic32.a(pic32_data_init_clear.o)
 .MIPS.abiflags
                0x0000000000000000       0x18 c:/program files/microchip/xc32/v4.35/bin/bin/../../lib/gcc/pic32mx/8.3.1/../../../../pic32mx/lib/fpu64\libpic32.a(pic32_data_init_clear.o)
 .xc_stack_usage.hdr
                0x0000000000000000        0xe c:/program files/microchip/xc32/v4.35/bin/bin/../../lib/gcc/pic32mx/8.3.1/../../../../pic32mx/lib/fpu64\libpic32.a(pic32_data_init_clear.o)
 .xc_stack_usage
                0x0000000000000000       0x1b c:/program files/microchip/xc32/v4.35/bin/bin/../../lib/gcc/pic32mx/8.3.1/../../../../pic32mx/lib/fpu64\libpic32.a(pic32_data_init_clear.o)
 .data          0x0000000000000000        0x0 c:/program files/microchip/xc32/v4.35/bin/bin/../../lib/gcc/pic32mx/8.3.1/../../../../pic32mx/lib/fpu64\libpic32.a(pic32_data_init_copy.o)
 .bss           0x0000000000000000        0x0 c:/program files/microchip/xc32/v4.35/bin/bin/../../lib/gcc/pic32mx/8.3.1/../../../../pic32mx/lib/fpu64\libpic32.a(pic32_data_init_copy.o)
 .reginfo       0x0000000000000000       0x18 c:/program files/microchip/xc32/v4.35/bin/bin/../../lib/gcc/pic32mx/8.3.1/../../../../pic32mx/lib/fpu64\libpic32.a(pic32_data_init_copy.o)
 .MIPS.abiflags
                0x0000000000000000       0x18 c:/program files/microchip/xc32/v4.35/bin/bin/../../lib/gcc/pic32mx/8.3.1/../../../../pic32mx/lib/fpu64\libpic32.a(pic32_data_init_copy.o)
 .xc_stack_usage.hdr
                0x0000000000000000        0xe c:/program files/microchip/xc32/v4.35/bin/bin/../../lib/gcc/pic32mx/8.3.1/../../../../pic32mx/lib/fpu64\libpic32.a(pic32_data_init_copy.o)
 .xc_stack_usage
                0x0000000000000000       0x1a c:/program files/microchip/xc32/v4.35/bin/bin/../../lib/gcc/pic32mx/8.3.1/../../../../pic32mx/lib/fpu64\libpic32.a(pic32_data_init_copy.o)

Memory Configuration

Name             Origin             Length             Attributes
kseg0_data_mem   0x0000000080000000 0x0000000000040000 w !x
kseg1_data_mem   0x00000000a0000000 0x0000000000000370
kseg0_program_mem 0x000000009d000000 0x0000000000100000 xr
kseg0_boot_mem   0x000000009fc20490 0x0000000000000000
debug_exec_mem   0x000000009fc20490 0x0000000000003aa0
kseg1_boot_mem   0x00000000bfc00000 0x0000000000000480
kseg1_boot_mem_4B0 0x00000000bfc004b0 0x0000000000003a80
config_BFC03F40  0x00000000bfc03f40 0x0000000000000004
config_BFC03F44  0x00000000bfc03f44 0x0000000000000004
config_BFC03F48  0x00000000bfc03f48 0x0000000000000004
config_BFC03F4C  0x00000000bfc03f4c 0x0000000000000004
config_BFC03F5C  0x00000000bfc03f5c 0x0000000000000004
config_BFC03F6C  0x00000000bfc03f6c 0x0000000000000004
config_BFC03F70  0x00000000bfc03f70 0x0000000000000004
config_BFC03FC0  0x00000000bfc03fc0 0x0000000000000004
config_BFC03FC4  0x00000000bfc03fc4 0x0000000000000004
config_BFC03FC8  0x00000000bfc03fc8 0x0000000000000004
config_BFC03FCC  0x00000000bfc03fcc 0x0000000000000004
config_BFC03FDC  0x00000000bfc03fdc 0x0000000000000004
config_BFC03FEC  0x00000000bfc03fec 0x0000000000000004
config_BFC03FF0  0x00000000bfc03ff0 0x0000000000000004
lowerbootaliaslastpage 0x00000000bfc04000 0x0000000000001000
upperbootalias   0x00000000bfc20000 0x0000000000003f30
config_BFC23F40  0x00000000bfc23f40 0x0000000000000004
config_BFC23F44  0x00000000bfc23f44 0x0000000000000004
config_BFC23F48  0x00000000bfc23f48 0x0000000000000004
config_BFC23F4C  0x00000000bfc23f4c 0x0000000000000004
config_BFC23F5C  0x00000000bfc23f5c 0x0000000000000004
config_BFC23F6C  0x00000000bfc23f6c 0x0000000000000004
config_BFC23F70  0x00000000bfc23f70 0x0000000000000004
config_BFC23FC0  0x00000000bfc23fc0 0x0000000000000004
config_BFC23FC4  0x00000000bfc23fc4 0x0000000000000004
config_BFC23FC8  0x00000000bfc23fc8 0x0000000000000004
config_BFC23FCC  0x00000000bfc23fcc 0x0000000000000004
config_BFC23FDC  0x00000000bfc23fdc 0x0000000000000004
config_BFC23FEC  0x00000000bfc23fec 0x0000000000000004
config_BFC23FF0  0x00000000bfc23ff0 0x0000000000000004
upperbootaliaslastpage 0x00000000bfc24000 0x0000000000001000
boot1            0x00000000bfc40000 0x0000000000003f30
config_BFC43F40  0x00000000bfc43f40 0x0000000000000004
config_BFC43F44  0x00000000bfc43f44 0x0000000000000004
config_BFC43F48  0x00000000bfc43f48 0x0000000000000004
config_BFC43F4C  0x00000000bfc43f4c 0x0000000000000004
config_BFC43F5C  0x00000000bfc43f5c 0x0000000000000004
config_BFC43F6C  0x00000000bfc43f6c 0x0000000000000004
config_BFC43F70  0x00000000bfc43f70 0x0000000000000004
config_BFC43FC0  0x00000000bfc43fc0 0x0000000000000004
config_BFC43FC4  0x00000000bfc43fc4 0x0000000000000004
config_BFC43FC8  0x00000000bfc43fc8 0x0000000000000004
config_BFC43FCC  0x00000000bfc43fcc 0x0000000000000004
config_BFC43FDC  0x00000000bfc43fdc 0x0000000000000004
config_BFC43FEC  0x00000000bfc43fec 0x0000000000000004
config_BFC43FF0  0x00000000bfc43ff0 0x0000000000000004
boot1lastpage    0x00000000bfc44000 0x0000000000001000
config_BFC45000  0x00000000bfc45000 0x0000000000000004
config_BFC45004  0x00000000bfc45004 0x0000000000000004
config_BFC45008  0x00000000bfc45008 0x0000000000000004
config_BFC4500C  0x00000000bfc4500c 0x0000000000000004
config_BFC45010  0x00000000bfc45010 0x0000000000000004
config_BFC45014  0x00000000bfc45014 0x0000000000000004
config_BFC45018  0x00000000bfc45018 0x0000000000000004
config_BFC45020  0x00000000bfc45020 0x0000000000000004
config_BFC45024  0x00000000bfc45024 0x0000000000000004
config_BFC45028  0x00000000bfc45028 0x0000000000000004
config_BFC4502C  0x00000000bfc4502c 0x0000000000000004
config_BFC45030  0x00000000bfc45030 0x0000000000000004
config_BFC45034  0x00000000bfc45034 0x0000000000000004
config_BFC45038  0x00000000bfc45038 0x0000000000000004
config_BFC4503C  0x00000000bfc4503c 0x0000000000000004
boot2            0x00000000bfc60000 0x0000000000003f30
config_BFC63F40  0x00000000bfc63f40 0x0000000000000004
config_BFC63F44  0x00000000bfc63f44 0x0000000000000004
config_BFC63F48  0x00000000bfc63f48 0x0000000000000004
config_BFC63F4C  0x00000000bfc63f4c 0x0000000000000004
config_BFC63F5C  0x00000000bfc63f5c 0x0000000000000004
config_BFC63F6C  0x00000000bfc63f6c 0x0000000000000004
config_BFC63F70  0x00000000bfc63f70 0x0000000000000004
config_BFC63FC0  0x00000000bfc63fc0 0x0000000000000004
config_BFC63FC4  0x00000000bfc63fc4 0x0000000000000004
config_BFC63FC8  0x00000000bfc63fc8 0x0000000000000004
config_BFC63FCC  0x00000000bfc63fcc 0x0000000000000004
config_BFC63FDC  0x00000000bfc63fdc 0x0000000000000004
config_BFC63FEC  0x00000000bfc63fec 0x0000000000000004
config_BFC63FF0  0x00000000bfc63ff0 0x0000000000000004
boot2lastpage    0x00000000bfc64000 0x0000000000001000
sfrs             0x00000000bf800000 0x0000000000100000
configsfrs_BFC03F30 0x00000000bfc03f30 0x000000000000001c
configsfrs_BFC03FB0 0x00000000bfc03fb0 0x000000000000001c
configsfrs_BFC23F30 0x00000000bfc23f30 0x000000000000001c
configsfrs_BFC23FB0 0x00000000bfc23fb0 0x000000000000001c
configsfrs_BFC43F30 0x00000000bfc43f30 0x000000000000001c
configsfrs_BFC43FB0 0x00000000bfc43fb0 0x000000000000001c
configsfrs_BFC45000 0x00000000bfc45000 0x000000000000001c
configsfrs_BFC45020 0x00000000bfc45020 0x0000000000000010
configsfrs_BFC45030 0x00000000bfc45030 0x0000000000000010
configsfrs_BFC63F30 0x00000000bfc63f30 0x000000000000001c
configsfrs_BFC63FB0 0x00000000bfc63fb0 0x000000000000001c
*default*        0x0000000000000000 0xffffffffffffffff

Linker script and memory map


reserve_data_0_kseg0
                0x0000000080000000      0x370
                0x0000000080000000        0x2 SHORT 0x0
                0x0000000000000370                . = 0x370
 *fill*         0x0000000080000002      0x36e 
                0x0000000080000370                . = ALIGN (0x4)

reserve_data_0_kseg1
                0x00000000a0000000      0x370
                0x00000000a0000000        0x2 SHORT 0x0
                0x0000000000000370                . = 0x370
 *fill*         0x00000000a0000002      0x36e 
                0x00000000a0000370                . = ALIGN (0x4)
LOAD c:/program files/microchip/xc32/v4.35/bin/bin/../../lib/gcc/pic32mx/8.3.1/../../../../pic32mx/lib/fpu64\software-debug-break.o
LOAD build/Config_2/debug/_ext/1982400153/plib_adchs.o
LOAD build/Config_2/debug/_ext/1984168316/plib_canfd1.o
LOAD build/Config_2/debug/_ext/1984168316/plib_canfd3.o
LOAD build/Config_2/debug/_ext/1984168316/plib_canfd2.o
LOAD build/Config_2/debug/_ext/1984168316/plib_canfd4.o
LOAD build/Config_2/debug/_ext/60165520/plib_clk.o
LOAD build/Config_2/debug/_ext/1249264884/plib_coretimer.o
LOAD build/Config_2/debug/_ext/1865161661/plib_dmac.o
LOAD build/Config_2/debug/_ext/1865200349/plib_evic.o
LOAD build/Config_2/debug/_ext/1865254177/plib_gpio.o
LOAD build/Config_2/debug/_ext/60181895/plib_tmr2.o
LOAD build/Config_2/debug/_ext/60181895/plib_tmr4.o
LOAD build/Config_2/debug/_ext/60181895/plib_tmr3.o
LOAD build/Config_2/debug/_ext/60181895/plib_tmr6.o
LOAD build/Config_2/debug/_ext/60181895/plib_tmr5.o
LOAD build/Config_2/debug/_ext/1865638794/plib_tmr1.o
LOAD build/Config_2/debug/_ext/1865657120/plib_uart1.o
LOAD build/Config_2/debug/_ext/1865657120/plib_uart3.o
LOAD build/Config_2/debug/_ext/60184501/plib_wdt.o
LOAD build/Config_2/debug/_ext/163028504/xc32_monitor.o
LOAD build/Config_2/debug/_ext/1171490990/initialization.o
LOAD build/Config_2/debug/_ext/1171490990/interrupts.o
LOAD build/Config_2/debug/_ext/1171490990/exceptions.o
LOAD build/Config_2/debug/_ext/1360937237/main.o
LOAD build/Config_2/debug/APPS.o
LOAD build/Config_2/debug/CAN_utils.o
LOAD build/Config_2/debug/_ext/772537440/cansart.o
LOAD build/Config_2/debug/_ext/772537440/cansartP.o
LOAD build/Config_2/debug/TorqueControl.o
                0x0000000000000001                __MPLAB_BUILD = 0x1
                0x0000000000000400                PROVIDE (_min_stack_size = 0x400)
START GROUP
LOAD vector_offset_init.o
END GROUP
                0x0000000000000001                PROVIDE (_vector_spacing = 0x1)
                0x000000009d000000                PROVIDE (_ebase_address = 0x9d000000)
                0x00000000bfc00000                _RESET_ADDR = 0xbfc00000
                0x00000000bfc00380                _BEV_EXCPT_ADDR = 0xbfc00380
                0x00000000bfc00480                _DBG_EXCPT_ADDR = 0xbfc00480
                0x000000009d000000                _SIMPLE_TLB_REFILL_EXCPT_ADDR = (_ebase_address + 0x0)
                0x000000009d000180                _GEN_EXCPT_ADDR = (_ebase_address + 0x180)

.config_BFC03F40
 *(.config_BFC03F40)

.config_BFC03F44
 *(.config_BFC03F44)

.config_BFC03F48
 *(.config_BFC03F48)

.config_BFC03F4C
 *(.config_BFC03F4C)

.config_BFC03F5C
 *(.config_BFC03F5C)

.config_BFC03F6C
 *(.config_BFC03F6C)

.config_BFC03F70
 *(.config_BFC03F70)

.config_BFC03FC0
 *(.config_BFC03FC0)

.config_BFC03FC4
 *(.config_BFC03FC4)

.config_BFC03FC8
 *(.config_BFC03FC8)

.config_BFC03FCC
 *(.config_BFC03FCC)

.config_BFC03FDC
 *(.config_BFC03FDC)

.config_BFC03FEC
 *(.config_BFC03FEC)

.config_BFC03FF0
 *(.config_BFC03FF0)

.config_BFC23F40
 *(.config_BFC23F40)

.config_BFC23F44
 *(.config_BFC23F44)

.config_BFC23F48
 *(.config_BFC23F48)

.config_BFC23F4C
 *(.config_BFC23F4C)

.config_BFC23F5C
 *(.config_BFC23F5C)

.config_BFC23F6C
 *(.config_BFC23F6C)

.config_BFC23F70
 *(.config_BFC23F70)

.config_BFC23FC0
 *(.config_BFC23FC0)

.config_BFC23FC4
 *(.config_BFC23FC4)

.config_BFC23FC8
 *(.config_BFC23FC8)

.config_BFC23FCC
 *(.config_BFC23FCC)

.config_BFC23FDC
 *(.config_BFC23FDC)

.config_BFC23FEC
 *(.config_BFC23FEC)

.config_BFC23FF0
 *(.config_BFC23FF0)

.config_BFC43F40
 *(.config_BFC43F40)

.config_BFC43F44
 *(.config_BFC43F44)

.config_BFC43F48
 *(.config_BFC43F48)

.config_BFC43F4C
 *(.config_BFC43F4C)

.config_BFC43F5C
 *(.config_BFC43F5C)

.config_BFC43F6C
 *(.config_BFC43F6C)

.config_BFC43F70
 *(.config_BFC43F70)

.config_BFC43FC0
 *(.config_BFC43FC0)

.config_BFC43FC4
 *(.config_BFC43FC4)

.config_BFC43FC8
 *(.config_BFC43FC8)

.config_BFC43FCC
 *(.config_BFC43FCC)

.config_BFC43FDC
 *(.config_BFC43FDC)

.config_BFC43FEC
 *(.config_BFC43FEC)

.config_BFC43FF0
 *(.config_BFC43FF0)

.config_BFC45000
 *(.config_BFC45000)

.config_BFC45004
 *(.config_BFC45004)

.config_BFC45008
 *(.config_BFC45008)

.config_BFC4500C
 *(.config_BFC4500C)

.config_BFC45010
 *(.config_BFC45010)

.config_BFC45014
 *(.config_BFC45014)

.config_BFC45018
 *(.config_BFC45018)

.config_BFC45020
 *(.config_BFC45020)

.config_BFC45024
 *(.config_BFC45024)

.config_BFC45028
 *(.config_BFC45028)

.config_BFC4502C
 *(.config_BFC4502C)

.config_BFC45030
 *(.config_BFC45030)

.config_BFC45034
 *(.config_BFC45034)

.config_BFC45038
 *(.config_BFC45038)

.config_BFC4503C
 *(.config_BFC4503C)

.config_BFC63F40
 *(.config_BFC63F40)

.config_BFC63F44
 *(.config_BFC63F44)

.config_BFC63F48
 *(.config_BFC63F48)

.config_BFC63F4C
 *(.config_BFC63F4C)

.config_BFC63F5C
 *(.config_BFC63F5C)

.config_BFC63F6C
 *(.config_BFC63F6C)

.config_BFC63F70
 *(.config_BFC63F70)

.config_BFC63FC0
 *(.config_BFC63FC0)

.config_BFC63FC4
 *(.config_BFC63FC4)

.config_BFC63FC8
 *(.config_BFC63FC8)

.config_BFC63FCC
 *(.config_BFC63FCC)

.config_BFC63FDC
 *(.config_BFC63FDC)

.config_BFC63FEC
 *(.config_BFC63FEC)

.config_BFC63FF0
 *(.config_BFC63FF0)

.reset          0x00000000bfc00000      0x1a4
 *(.reset)
 .reset         0x00000000bfc00000       0x18 C:\Users\pedro\AppData\Local\Temp\ccPLik8y.o
                0x00000000bfc00000                _reset
 *(.reset.startup)
 .reset.startup
                0x00000000bfc00018      0x18c C:\Users\pedro\AppData\Local\Temp\ccPLik8y.o
                0x00000000bfc00018                _startup

.bev_excpt      0x00000000bfc00380       0x10
 *(.bev_handler)
 .bev_handler   0x00000000bfc00380       0x10 C:\Users\pedro\AppData\Local\Temp\ccPLik8y.o

.app_excpt      0x000000009d000180       0x10
 *(.gen_handler)
 .gen_handler   0x000000009d000180       0x10 C:\Users\pedro\AppData\Local\Temp\ccPLik8y.o

.vectors        0x000000009d000200       0xa0
                0x000000009d000200                . = ALIGN (0x4)
                0x0000000000000258                __vector_offset_0 = DEFINED (__vector_dispatch_0)?(. - _ebase_address):__vector_offset_default
 *(.vector_0)
                0x000000009d000200                . = ALIGN (0x4)
                0x0000000000000258                __vector_offset_1 = DEFINED (__vector_dispatch_1)?(. - _ebase_address):__vector_offset_default
 *(.vector_1)
                0x000000009d000200                . = ALIGN (0x4)
                0x0000000000000258                __vector_offset_2 = DEFINED (__vector_dispatch_2)?(. - _ebase_address):__vector_offset_default
 *(.vector_2)
                0x000000009d000200                . = ALIGN (0x4)
                0x0000000000000258                __vector_offset_3 = DEFINED (__vector_dispatch_3)?(. - _ebase_address):__vector_offset_default
 *(.vector_3)
                0x000000009d000200                . = ALIGN (0x4)
                0x0000000000000200                __vector_offset_4 = DEFINED (__vector_dispatch_4)?(. - _ebase_address):__vector_offset_default
 *(.vector_4)
 .vector_4      0x000000009d000200        0x8 build/Config_2/debug/_ext/1171490990/interrupts.o
                0x000000009d000200                __vector_dispatch_4
                0x000000009d000208                . = ALIGN (0x4)
                0x0000000000000258                __vector_offset_5 = DEFINED (__vector_dispatch_5)?(. - _ebase_address):__vector_offset_default
 *(.vector_5)
                0x000000009d000208                . = ALIGN (0x4)
                0x0000000000000258                __vector_offset_6 = DEFINED (__vector_dispatch_6)?(. - _ebase_address):__vector_offset_default
 *(.vector_6)
                0x000000009d000208                . = ALIGN (0x4)
                0x0000000000000258                __vector_offset_7 = DEFINED (__vector_dispatch_7)?(. - _ebase_address):__vector_offset_default
 *(.vector_7)
                0x000000009d000208                . = ALIGN (0x4)
                0x0000000000000258                __vector_offset_8 = DEFINED (__vector_dispatch_8)?(. - _ebase_address):__vector_offset_default
 *(.vector_8)
                0x000000009d000208                . = ALIGN (0x4)
                0x0000000000000208                __vector_offset_9 = DEFINED (__vector_dispatch_9)?(. - _ebase_address):__vector_offset_default
 *(.vector_9)
 .vector_9      0x000000009d000208        0x8 build/Config_2/debug/_ext/1171490990/interrupts.o
                0x000000009d000208                __vector_dispatch_9
                0x000000009d000210                . = ALIGN (0x4)
                0x0000000000000258                __vector_offset_10 = DEFINED (__vector_dispatch_10)?(. - _ebase_address):__vector_offset_default
 *(.vector_10)
                0x000000009d000210                . = ALIGN (0x4)
                0x0000000000000258                __vector_offset_11 = DEFINED (__vector_dispatch_11)?(. - _ebase_address):__vector_offset_default
 *(.vector_11)
                0x000000009d000210                . = ALIGN (0x4)
                0x0000000000000258                __vector_offset_12 = DEFINED (__vector_dispatch_12)?(. - _ebase_address):__vector_offset_default
 *(.vector_12)
                0x000000009d000210                . = ALIGN (0x4)
                0x0000000000000258                __vector_offset_13 = DEFINED (__vector_dispatch_13)?(. - _ebase_address):__vector_offset_default
 *(.vector_13)
                0x000000009d000210                . = ALIGN (0x4)
                0x0000000000000210                __vector_offset_14 = DEFINED (__vector_dispatch_14)?(. - _ebase_address):__vector_offset_default
 *(.vector_14)
 .vector_14     0x000000009d000210        0x8 build/Config_2/debug/_ext/1171490990/interrupts.o
                0x000000009d000210                __vector_dispatch_14
                0x000000009d000218                . = ALIGN (0x4)
                0x0000000000000258                __vector_offset_15 = DEFINED (__vector_dispatch_15)?(. - _ebase_address):__vector_offset_default
 *(.vector_15)
                0x000000009d000218                . = ALIGN (0x4)
                0x0000000000000258                __vector_offset_16 = DEFINED (__vector_dispatch_16)?(. - _ebase_address):__vector_offset_default
 *(.vector_16)
                0x000000009d000218                . = ALIGN (0x4)
                0x0000000000000258                __vector_offset_17 = DEFINED (__vector_dispatch_17)?(. - _ebase_address):__vector_offset_default
 *(.vector_17)
                0x000000009d000218                . = ALIGN (0x4)
                0x0000000000000258                __vector_offset_18 = DEFINED (__vector_dispatch_18)?(. - _ebase_address):__vector_offset_default
 *(.vector_18)
                0x000000009d000218                . = ALIGN (0x4)
                0x0000000000000218                __vector_offset_19 = DEFINED (__vector_dispatch_19)?(. - _ebase_address):__vector_offset_default
 *(.vector_19)
 .vector_19     0x000000009d000218        0x8 build/Config_2/debug/_ext/1171490990/interrupts.o
                0x000000009d000218                __vector_dispatch_19
                0x000000009d000220                . = ALIGN (0x4)
                0x0000000000000258                __vector_offset_20 = DEFINED (__vector_dispatch_20)?(. - _ebase_address):__vector_offset_default
 *(.vector_20)
                0x000000009d000220                . = ALIGN (0x4)
                0x0000000000000258                __vector_offset_21 = DEFINED (__vector_dispatch_21)?(. - _ebase_address):__vector_offset_default
 *(.vector_21)
                0x000000009d000220                . = ALIGN (0x4)
                0x0000000000000258                __vector_offset_22 = DEFINED (__vector_dispatch_22)?(. - _ebase_address):__vector_offset_default
 *(.vector_22)
                0x000000009d000220                . = ALIGN (0x4)
                0x0000000000000258                __vector_offset_23 = DEFINED (__vector_dispatch_23)?(. - _ebase_address):__vector_offset_default
 *(.vector_23)
                0x000000009d000220                . = ALIGN (0x4)
                0x0000000000000220                __vector_offset_24 = DEFINED (__vector_dispatch_24)?(. - _ebase_address):__vector_offset_default
 *(.vector_24)
 .vector_24     0x000000009d000220        0x8 build/Config_2/debug/_ext/1171490990/interrupts.o
                0x000000009d000220                __vector_dispatch_24
                0x000000009d000228                . = ALIGN (0x4)
                0x0000000000000258                __vector_offset_25 = DEFINED (__vector_dispatch_25)?(. - _ebase_address):__vector_offset_default
 *(.vector_25)
                0x000000009d000228                . = ALIGN (0x4)
                0x0000000000000258                __vector_offset_26 = DEFINED (__vector_dispatch_26)?(. - _ebase_address):__vector_offset_default
 *(.vector_26)
                0x000000009d000228                . = ALIGN (0x4)
                0x0000000000000258                __vector_offset_27 = DEFINED (__vector_dispatch_27)?(. - _ebase_address):__vector_offset_default
 *(.vector_27)
                0x000000009d000228                . = ALIGN (0x4)
                0x0000000000000258                __vector_offset_28 = DEFINED (__vector_dispatch_28)?(. - _ebase_address):__vector_offset_default
 *(.vector_28)
                0x000000009d000228                . = ALIGN (0x4)
                0x0000000000000258                __vector_offset_29 = DEFINED (__vector_dispatch_29)?(. - _ebase_address):__vector_offset_default
 *(.vector_29)
                0x000000009d000228                . = ALIGN (0x4)
                0x0000000000000258                __vector_offset_30 = DEFINED (__vector_dispatch_30)?(. - _ebase_address):__vector_offset_default
 *(.vector_30)
                0x000000009d000228                . = ALIGN (0x4)
                0x0000000000000258                __vector_offset_31 = DEFINED (__vector_dispatch_31)?(. - _ebase_address):__vector_offset_default
 *(.vector_31)
                0x000000009d000228                . = ALIGN (0x4)
                0x0000000000000258                __vector_offset_32 = DEFINED (__vector_dispatch_32)?(. - _ebase_address):__vector_offset_default
 *(.vector_32)
                0x000000009d000228                . = ALIGN (0x4)
                0x0000000000000258                __vector_offset_33 = DEFINED (__vector_dispatch_33)?(. - _ebase_address):__vector_offset_default
 *(.vector_33)
                0x000000009d000228                . = ALIGN (0x4)
                0x0000000000000258                __vector_offset_34 = DEFINED (__vector_dispatch_34)?(. - _ebase_address):__vector_offset_default
 *(.vector_34)
                0x000000009d000228                . = ALIGN (0x4)
                0x0000000000000258                __vector_offset_35 = DEFINED (__vector_dispatch_35)?(. - _ebase_address):__vector_offset_default
 *(.vector_35)
                0x000000009d000228                . = ALIGN (0x4)
                0x0000000000000258                __vector_offset_36 = DEFINED (__vector_dispatch_36)?(. - _ebase_address):__vector_offset_default
 *(.vector_36)
                0x000000009d000228                . = ALIGN (0x4)
                0x0000000000000258                __vector_offset_37 = DEFINED (__vector_dispatch_37)?(. - _ebase_address):__vector_offset_default
 *(.vector_37)
                0x000000009d000228                . = ALIGN (0x4)
                0x0000000000000258                __vector_offset_38 = DEFINED (__vector_dispatch_38)?(. - _ebase_address):__vector_offset_default
 *(.vector_38)
                0x000000009d000228                . = ALIGN (0x4)
                0x0000000000000258                __vector_offset_39 = DEFINED (__vector_dispatch_39)?(. - _ebase_address):__vector_offset_default
 *(.vector_39)
                0x000000009d000228                . = ALIGN (0x4)
                0x0000000000000258                __vector_offset_40 = DEFINED (__vector_dispatch_40)?(. - _ebase_address):__vector_offset_default
 *(.vector_40)
                0x000000009d000228                . = ALIGN (0x4)
                0x0000000000000258                __vector_offset_41 = DEFINED (__vector_dispatch_41)?(. - _ebase_address):__vector_offset_default
 *(.vector_41)
                0x000000009d000228                . = ALIGN (0x4)
                0x0000000000000258                __vector_offset_42 = DEFINED (__vector_dispatch_42)?(. - _ebase_address):__vector_offset_default
 *(.vector_42)
                0x000000009d000228                . = ALIGN (0x4)
                0x0000000000000258                __vector_offset_43 = DEFINED (__vector_dispatch_43)?(. - _ebase_address):__vector_offset_default
 *(.vector_43)
                0x000000009d000228                . = ALIGN (0x4)
                0x0000000000000258                __vector_offset_44 = DEFINED (__vector_dispatch_44)?(. - _ebase_address):__vector_offset_default
 *(.vector_44)
                0x000000009d000228                . = ALIGN (0x4)
                0x0000000000000258                __vector_offset_45 = DEFINED (__vector_dispatch_45)?(. - _ebase_address):__vector_offset_default
 *(.vector_45)
                0x000000009d000228                . = ALIGN (0x4)
                0x0000000000000258                __vector_offset_46 = DEFINED (__vector_dispatch_46)?(. - _ebase_address):__vector_offset_default
 *(.vector_46)
                0x000000009d000228                . = ALIGN (0x4)
                0x0000000000000258                __vector_offset_47 = DEFINED (__vector_dispatch_47)?(. - _ebase_address):__vector_offset_default
 *(.vector_47)
                0x000000009d000228                . = ALIGN (0x4)
                0x0000000000000258                __vector_offset_48 = DEFINED (__vector_dispatch_48)?(. - _ebase_address):__vector_offset_default
 *(.vector_48)
                0x000000009d000228                . = ALIGN (0x4)
                0x0000000000000258                __vector_offset_49 = DEFINED (__vector_dispatch_49)?(. - _ebase_address):__vector_offset_default
 *(.vector_49)
                0x000000009d000228                . = ALIGN (0x4)
                0x0000000000000258                __vector_offset_50 = DEFINED (__vector_dispatch_50)?(. - _ebase_address):__vector_offset_default
 *(.vector_50)
                0x000000009d000228                . = ALIGN (0x4)
                0x0000000000000258                __vector_offset_51 = DEFINED (__vector_dispatch_51)?(. - _ebase_address):__vector_offset_default
 *(.vector_51)
                0x000000009d000228                . = ALIGN (0x4)
                0x0000000000000258                __vector_offset_52 = DEFINED (__vector_dispatch_52)?(. - _ebase_address):__vector_offset_default
 *(.vector_52)
                0x000000009d000228                . = ALIGN (0x4)
                0x0000000000000258                __vector_offset_53 = DEFINED (__vector_dispatch_53)?(. - _ebase_address):__vector_offset_default
 *(.vector_53)
                0x000000009d000228                . = ALIGN (0x4)
                0x0000000000000258                __vector_offset_54 = DEFINED (__vector_dispatch_54)?(. - _ebase_address):__vector_offset_default
 *(.vector_54)
                0x000000009d000228                . = ALIGN (0x4)
                0x0000000000000258                __vector_offset_55 = DEFINED (__vector_dispatch_55)?(. - _ebase_address):__vector_offset_default
 *(.vector_55)
                0x000000009d000228                . = ALIGN (0x4)
                0x0000000000000258                __vector_offset_56 = DEFINED (__vector_dispatch_56)?(. - _ebase_address):__vector_offset_default
 *(.vector_56)
                0x000000009d000228                . = ALIGN (0x4)
                0x0000000000000258                __vector_offset_57 = DEFINED (__vector_dispatch_57)?(. - _ebase_address):__vector_offset_default
 *(.vector_57)
                0x000000009d000228                . = ALIGN (0x4)
                0x0000000000000258                __vector_offset_58 = DEFINED (__vector_dispatch_58)?(. - _ebase_address):__vector_offset_default
 *(.vector_58)
                0x000000009d000228                . = ALIGN (0x4)
                0x0000000000000258                __vector_offset_59 = DEFINED (__vector_dispatch_59)?(. - _ebase_address):__vector_offset_default
 *(.vector_59)
                0x000000009d000228                . = ALIGN (0x4)
                0x0000000000000258                __vector_offset_60 = DEFINED (__vector_dispatch_60)?(. - _ebase_address):__vector_offset_default
 *(.vector_60)
                0x000000009d000228                . = ALIGN (0x4)
                0x0000000000000258                __vector_offset_61 = DEFINED (__vector_dispatch_61)?(. - _ebase_address):__vector_offset_default
 *(.vector_61)
                0x000000009d000228                . = ALIGN (0x4)
                0x0000000000000258                __vector_offset_62 = DEFINED (__vector_dispatch_62)?(. - _ebase_address):__vector_offset_default
 *(.vector_62)
                0x000000009d000228                . = ALIGN (0x4)
                0x0000000000000258                __vector_offset_63 = DEFINED (__vector_dispatch_63)?(. - _ebase_address):__vector_offset_default
 *(.vector_63)
                0x000000009d000228                . = ALIGN (0x4)
                0x0000000000000258                __vector_offset_64 = DEFINED (__vector_dispatch_64)?(. - _ebase_address):__vector_offset_default
 *(.vector_64)
                0x000000009d000228                . = ALIGN (0x4)
                0x0000000000000258                __vector_offset_65 = DEFINED (__vector_dispatch_65)?(. - _ebase_address):__vector_offset_default
 *(.vector_65)
                0x000000009d000228                . = ALIGN (0x4)
                0x0000000000000258                __vector_offset_66 = DEFINED (__vector_dispatch_66)?(. - _ebase_address):__vector_offset_default
 *(.vector_66)
                0x000000009d000228                . = ALIGN (0x4)
                0x0000000000000258                __vector_offset_67 = DEFINED (__vector_dispatch_67)?(. - _ebase_address):__vector_offset_default
 *(.vector_67)
                0x000000009d000228                . = ALIGN (0x4)
                0x0000000000000258                __vector_offset_68 = DEFINED (__vector_dispatch_68)?(. - _ebase_address):__vector_offset_default
 *(.vector_68)
                0x000000009d000228                . = ALIGN (0x4)
                0x0000000000000258                __vector_offset_69 = DEFINED (__vector_dispatch_69)?(. - _ebase_address):__vector_offset_default
 *(.vector_69)
                0x000000009d000228                . = ALIGN (0x4)
                0x0000000000000258                __vector_offset_70 = DEFINED (__vector_dispatch_70)?(. - _ebase_address):__vector_offset_default
 *(.vector_70)
                0x000000009d000228                . = ALIGN (0x4)
                0x0000000000000258                __vector_offset_71 = DEFINED (__vector_dispatch_71)?(. - _ebase_address):__vector_offset_default
 *(.vector_71)
                0x000000009d000228                . = ALIGN (0x4)
                0x0000000000000228                __vector_offset_72 = DEFINED (__vector_dispatch_72)?(. - _ebase_address):__vector_offset_default
 *(.vector_72)
 .vector_72     0x000000009d000228        0x8 build/Config_2/debug/_ext/1171490990/interrupts.o
                0x000000009d000228                __vector_dispatch_72
                0x000000009d000230                . = ALIGN (0x4)
                0x0000000000000258                __vector_offset_73 = DEFINED (__vector_dispatch_73)?(. - _ebase_address):__vector_offset_default
 *(.vector_73)
                0x000000009d000230                . = ALIGN (0x4)
                0x0000000000000258                __vector_offset_74 = DEFINED (__vector_dispatch_74)?(. - _ebase_address):__vector_offset_default
 *(.vector_74)
                0x000000009d000230                . = ALIGN (0x4)
                0x0000000000000258                __vector_offset_75 = DEFINED (__vector_dispatch_75)?(. - _ebase_address):__vector_offset_default
 *(.vector_75)
                0x000000009d000230                . = ALIGN (0x4)
                0x0000000000000230                __vector_offset_76 = DEFINED (__vector_dispatch_76)?(. - _ebase_address):__vector_offset_default
 *(.vector_76)
 .vector_76     0x000000009d000230        0x8 build/Config_2/debug/_ext/1171490990/interrupts.o
                0x000000009d000230                __vector_dispatch_76
                0x000000009d000238                . = ALIGN (0x4)
                0x0000000000000258                __vector_offset_77 = DEFINED (__vector_dispatch_77)?(. - _ebase_address):__vector_offset_default
 *(.vector_77)
                0x000000009d000238                . = ALIGN (0x4)
                0x0000000000000258                __vector_offset_78 = DEFINED (__vector_dispatch_78)?(. - _ebase_address):__vector_offset_default
 *(.vector_78)
                0x000000009d000238                . = ALIGN (0x4)
                0x0000000000000258                __vector_offset_79 = DEFINED (__vector_dispatch_79)?(. - _ebase_address):__vector_offset_default
 *(.vector_79)
                0x000000009d000238                . = ALIGN (0x4)
                0x0000000000000258                __vector_offset_80 = DEFINED (__vector_dispatch_80)?(. - _ebase_address):__vector_offset_default
 *(.vector_80)
                0x000000009d000238                . = ALIGN (0x4)
                0x0000000000000258                __vector_offset_81 = DEFINED (__vector_dispatch_81)?(. - _ebase_address):__vector_offset_default
 *(.vector_81)
                0x000000009d000238                . = ALIGN (0x4)
                0x0000000000000258                __vector_offset_82 = DEFINED (__vector_dispatch_82)?(. - _ebase_address):__vector_offset_default
 *(.vector_82)
                0x000000009d000238                . = ALIGN (0x4)
                0x0000000000000258                __vector_offset_83 = DEFINED (__vector_dispatch_83)?(. - _ebase_address):__vector_offset_default
 *(.vector_83)
                0x000000009d000238                . = ALIGN (0x4)
                0x0000000000000258                __vector_offset_84 = DEFINED (__vector_dispatch_84)?(. - _ebase_address):__vector_offset_default
 *(.vector_84)
                0x000000009d000238                . = ALIGN (0x4)
                0x0000000000000258                __vector_offset_85 = DEFINED (__vector_dispatch_85)?(. - _ebase_address):__vector_offset_default
 *(.vector_85)
                0x000000009d000238                . = ALIGN (0x4)
                0x0000000000000258                __vector_offset_86 = DEFINED (__vector_dispatch_86)?(. - _ebase_address):__vector_offset_default
 *(.vector_86)
                0x000000009d000238                . = ALIGN (0x4)
                0x0000000000000258                __vector_offset_87 = DEFINED (__vector_dispatch_87)?(. - _ebase_address):__vector_offset_default
 *(.vector_87)
                0x000000009d000238                . = ALIGN (0x4)
                0x0000000000000258                __vector_offset_88 = DEFINED (__vector_dispatch_88)?(. - _ebase_address):__vector_offset_default
 *(.vector_88)
                0x000000009d000238                . = ALIGN (0x4)
                0x0000000000000258                __vector_offset_89 = DEFINED (__vector_dispatch_89)?(. - _ebase_address):__vector_offset_default
 *(.vector_89)
                0x000000009d000238                . = ALIGN (0x4)
                0x0000000000000258                __vector_offset_90 = DEFINED (__vector_dispatch_90)?(. - _ebase_address):__vector_offset_default
 *(.vector_90)
                0x000000009d000238                . = ALIGN (0x4)
                0x0000000000000258                __vector_offset_91 = DEFINED (__vector_dispatch_91)?(. - _ebase_address):__vector_offset_default
 *(.vector_91)
                0x000000009d000238                . = ALIGN (0x4)
                0x0000000000000258                __vector_offset_92 = DEFINED (__vector_dispatch_92)?(. - _ebase_address):__vector_offset_default
 *(.vector_92)
                0x000000009d000238                . = ALIGN (0x4)
                0x0000000000000258                __vector_offset_93 = DEFINED (__vector_dispatch_93)?(. - _ebase_address):__vector_offset_default
 *(.vector_93)
                0x000000009d000238                . = ALIGN (0x4)
                0x0000000000000258                __vector_offset_94 = DEFINED (__vector_dispatch_94)?(. - _ebase_address):__vector_offset_default
 *(.vector_94)
                0x000000009d000238                . = ALIGN (0x4)
                0x0000000000000258                __vector_offset_95 = DEFINED (__vector_dispatch_95)?(. - _ebase_address):__vector_offset_default
 *(.vector_95)
                0x000000009d000238                . = ALIGN (0x4)
                0x0000000000000258                __vector_offset_96 = DEFINED (__vector_dispatch_96)?(. - _ebase_address):__vector_offset_default
 *(.vector_96)
                0x000000009d000238                . = ALIGN (0x4)
                0x0000000000000258                __vector_offset_97 = DEFINED (__vector_dispatch_97)?(. - _ebase_address):__vector_offset_default
 *(.vector_97)
                0x000000009d000238                . = ALIGN (0x4)
                0x0000000000000258                __vector_offset_98 = DEFINED (__vector_dispatch_98)?(. - _ebase_address):__vector_offset_default
 *(.vector_98)
                0x000000009d000238                . = ALIGN (0x4)
                0x0000000000000258                __vector_offset_99 = DEFINED (__vector_dispatch_99)?(. - _ebase_address):__vector_offset_default
 *(.vector_99)
                0x000000009d000238                . = ALIGN (0x4)
                0x0000000000000258                __vector_offset_100 = DEFINED (__vector_dispatch_100)?(. - _ebase_address):__vector_offset_default
 *(.vector_100)
                0x000000009d000238                . = ALIGN (0x4)
                0x0000000000000258                __vector_offset_101 = DEFINED (__vector_dispatch_101)?(. - _ebase_address):__vector_offset_default
 *(.vector_101)
                0x000000009d000238                . = ALIGN (0x4)
                0x0000000000000258                __vector_offset_102 = DEFINED (__vector_dispatch_102)?(. - _ebase_address):__vector_offset_default
 *(.vector_102)
                0x000000009d000238                . = ALIGN (0x4)
                0x0000000000000258                __vector_offset_103 = DEFINED (__vector_dispatch_103)?(. - _ebase_address):__vector_offset_default
 *(.vector_103)
                0x000000009d000238                . = ALIGN (0x4)
                0x0000000000000258                __vector_offset_104 = DEFINED (__vector_dispatch_104)?(. - _ebase_address):__vector_offset_default
 *(.vector_104)
                0x000000009d000238                . = ALIGN (0x4)
                0x0000000000000258                __vector_offset_105 = DEFINED (__vector_dispatch_105)?(. - _ebase_address):__vector_offset_default
 *(.vector_105)
                0x000000009d000238                . = ALIGN (0x4)
                0x0000000000000238                __vector_offset_106 = DEFINED (__vector_dispatch_106)?(. - _ebase_address):__vector_offset_default
 *(.vector_106)
 .vector_106    0x000000009d000238        0x8 build/Config_2/debug/_ext/1171490990/interrupts.o
                0x000000009d000238                __vector_dispatch_106
                0x000000009d000240                . = ALIGN (0x4)
                0x0000000000000258                __vector_offset_107 = DEFINED (__vector_dispatch_107)?(. - _ebase_address):__vector_offset_default
 *(.vector_107)
                0x000000009d000240                . = ALIGN (0x4)
                0x0000000000000258                __vector_offset_108 = DEFINED (__vector_dispatch_108)?(. - _ebase_address):__vector_offset_default
 *(.vector_108)
                0x000000009d000240                . = ALIGN (0x4)
                0x0000000000000240                __vector_offset_109 = DEFINED (__vector_dispatch_109)?(. - _ebase_address):__vector_offset_default
 *(.vector_109)
 .vector_109    0x000000009d000240        0x8 build/Config_2/debug/_ext/1171490990/interrupts.o
                0x000000009d000240                __vector_dispatch_109
                0x000000009d000248                . = ALIGN (0x4)
                0x0000000000000258                __vector_offset_110 = DEFINED (__vector_dispatch_110)?(. - _ebase_address):__vector_offset_default
 *(.vector_110)
                0x000000009d000248                . = ALIGN (0x4)
                0x0000000000000258                __vector_offset_111 = DEFINED (__vector_dispatch_111)?(. - _ebase_address):__vector_offset_default
 *(.vector_111)
                0x000000009d000248                . = ALIGN (0x4)
                0x0000000000000258                __vector_offset_112 = DEFINED (__vector_dispatch_112)?(. - _ebase_address):__vector_offset_default
 *(.vector_112)
                0x000000009d000248                . = ALIGN (0x4)
                0x0000000000000258                __vector_offset_113 = DEFINED (__vector_dispatch_113)?(. - _ebase_address):__vector_offset_default
 *(.vector_113)
                0x000000009d000248                . = ALIGN (0x4)
                0x0000000000000248                __vector_offset_114 = DEFINED (__vector_dispatch_114)?(. - _ebase_address):__vector_offset_default
 *(.vector_114)
 .vector_114    0x000000009d000248        0x8 build/Config_2/debug/_ext/1171490990/interrupts.o
                0x000000009d000248                __vector_dispatch_114
                0x000000009d000250                . = ALIGN (0x4)
                0x0000000000000258                __vector_offset_115 = DEFINED (__vector_dispatch_115)?(. - _ebase_address):__vector_offset_default
 *(.vector_115)
                0x000000009d000250                . = ALIGN (0x4)
                0x0000000000000258                __vector_offset_116 = DEFINED (__vector_dispatch_116)?(. - _ebase_address):__vector_offset_default
 *(.vector_116)
                0x000000009d000250                . = ALIGN (0x4)
                0x0000000000000258                __vector_offset_117 = DEFINED (__vector_dispatch_117)?(. - _ebase_address):__vector_offset_default
 *(.vector_117)
                0x000000009d000250                . = ALIGN (0x4)
                0x0000000000000258                __vector_offset_118 = DEFINED (__vector_dispatch_118)?(. - _ebase_address):__vector_offset_default
 *(.vector_118)
                0x000000009d000250                . = ALIGN (0x4)
                0x0000000000000258                __vector_offset_119 = DEFINED (__vector_dispatch_119)?(. - _ebase_address):__vector_offset_default
 *(.vector_119)
                0x000000009d000250                . = ALIGN (0x4)
                0x0000000000000250                __vector_offset_120 = DEFINED (__vector_dispatch_120)?(. - _ebase_address):__vector_offset_default
 *(.vector_120)
 .vector_120    0x000000009d000250        0x8 build/Config_2/debug/_ext/1171490990/interrupts.o
                0x000000009d000250                __vector_dispatch_120
                0x000000009d000258                . = ALIGN (0x4)
                0x0000000000000258                __vector_offset_121 = DEFINED (__vector_dispatch_121)?(. - _ebase_address):__vector_offset_default
 *(.vector_121)
                0x000000009d000258                . = ALIGN (0x4)
                0x0000000000000258                __vector_offset_122 = DEFINED (__vector_dispatch_122)?(. - _ebase_address):__vector_offset_default
 *(.vector_122)
                0x000000009d000258                . = ALIGN (0x4)
                0x0000000000000258                __vector_offset_123 = DEFINED (__vector_dispatch_123)?(. - _ebase_address):__vector_offset_default
 *(.vector_123)
                0x000000009d000258                . = ALIGN (0x4)
                0x0000000000000258                __vector_offset_124 = DEFINED (__vector_dispatch_124)?(. - _ebase_address):__vector_offset_default
 *(.vector_124)
                0x000000009d000258                . = ALIGN (0x4)
                0x0000000000000258                __vector_offset_125 = DEFINED (__vector_dispatch_125)?(. - _ebase_address):__vector_offset_default
 *(.vector_125)
                0x000000009d000258                . = ALIGN (0x4)
                0x0000000000000258                __vector_offset_126 = DEFINED (__vector_dispatch_126)?(. - _ebase_address):__vector_offset_default
 *(.vector_126)
                0x000000009d000258                . = ALIGN (0x4)
                0x0000000000000258                __vector_offset_127 = DEFINED (__vector_dispatch_127)?(. - _ebase_address):__vector_offset_default
 *(.vector_127)
                0x000000009d000258                . = ALIGN (0x4)
                0x0000000000000258                __vector_offset_128 = DEFINED (__vector_dispatch_128)?(. - _ebase_address):__vector_offset_default
 *(.vector_128)
                0x000000009d000258                . = ALIGN (0x4)
                0x0000000000000258                __vector_offset_129 = DEFINED (__vector_dispatch_129)?(. - _ebase_address):__vector_offset_default
 *(.vector_129)
                0x000000009d000258                . = ALIGN (0x4)
                0x0000000000000258                __vector_offset_130 = DEFINED (__vector_dispatch_130)?(. - _ebase_address):__vector_offset_default
 *(.vector_130)
                0x000000009d000258                . = ALIGN (0x4)
                0x0000000000000258                __vector_offset_131 = DEFINED (__vector_dispatch_131)?(. - _ebase_address):__vector_offset_default
 *(.vector_131)
                0x000000009d000258                . = ALIGN (0x4)
                0x0000000000000258                __vector_offset_132 = DEFINED (__vector_dispatch_132)?(. - _ebase_address):__vector_offset_default
 *(.vector_132)
                0x000000009d000258                . = ALIGN (0x4)
                0x0000000000000258                __vector_offset_133 = DEFINED (__vector_dispatch_133)?(. - _ebase_address):__vector_offset_default
 *(.vector_133)
                0x000000009d000258                . = ALIGN (0x4)
                0x0000000000000258                __vector_offset_134 = DEFINED (__vector_dispatch_134)?(. - _ebase_address):__vector_offset_default
 *(.vector_134)
                0x000000009d000258                . = ALIGN (0x4)
                0x0000000000000258                __vector_offset_135 = DEFINED (__vector_dispatch_135)?(. - _ebase_address):__vector_offset_default
 *(.vector_135)
                0x000000009d000258                . = ALIGN (0x4)
                0x0000000000000258                __vector_offset_136 = DEFINED (__vector_dispatch_136)?(. - _ebase_address):__vector_offset_default
 *(.vector_136)
                0x000000009d000258                . = ALIGN (0x4)
                0x0000000000000258                __vector_offset_137 = DEFINED (__vector_dispatch_137)?(. - _ebase_address):__vector_offset_default
 *(.vector_137)
                0x000000009d000258                . = ALIGN (0x4)
                0x0000000000000258                __vector_offset_138 = DEFINED (__vector_dispatch_138)?(. - _ebase_address):__vector_offset_default
 *(.vector_138)
                0x000000009d000258                . = ALIGN (0x4)
                0x0000000000000258                __vector_offset_139 = DEFINED (__vector_dispatch_139)?(. - _ebase_address):__vector_offset_default
 *(.vector_139)
                0x000000009d000258                . = ALIGN (0x4)
                0x0000000000000258                __vector_offset_140 = DEFINED (__vector_dispatch_140)?(. - _ebase_address):__vector_offset_default
 *(.vector_140)
                0x000000009d000258                . = ALIGN (0x4)
                0x0000000000000258                __vector_offset_141 = DEFINED (__vector_dispatch_141)?(. - _ebase_address):__vector_offset_default
 *(.vector_141)
                0x000000009d000258                . = ALIGN (0x4)
                0x0000000000000258                __vector_offset_142 = DEFINED (__vector_dispatch_142)?(. - _ebase_address):__vector_offset_default
 *(.vector_142)
                0x000000009d000258                . = ALIGN (0x4)
                0x0000000000000258                __vector_offset_143 = DEFINED (__vector_dispatch_143)?(. - _ebase_address):__vector_offset_default
 *(.vector_143)
                0x000000009d000258                . = ALIGN (0x4)
                0x0000000000000258                __vector_offset_144 = DEFINED (__vector_dispatch_144)?(. - _ebase_address):__vector_offset_default
 *(.vector_144)
                0x000000009d000258                . = ALIGN (0x4)
                0x0000000000000258                __vector_offset_145 = DEFINED (__vector_dispatch_145)?(. - _ebase_address):__vector_offset_default
 *(.vector_145)
                0x000000009d000258                . = ALIGN (0x4)
                0x0000000000000258                __vector_offset_146 = DEFINED (__vector_dispatch_146)?(. - _ebase_address):__vector_offset_default
 *(.vector_146)
                0x000000009d000258                . = ALIGN (0x4)
                0x0000000000000258                __vector_offset_147 = DEFINED (__vector_dispatch_147)?(. - _ebase_address):__vector_offset_default
 *(.vector_147)
                0x000000009d000258                . = ALIGN (0x4)
                0x0000000000000258                __vector_offset_148 = DEFINED (__vector_dispatch_148)?(. - _ebase_address):__vector_offset_default
 *(.vector_148)
                0x000000009d000258                . = ALIGN (0x4)
                0x0000000000000258                __vector_offset_149 = DEFINED (__vector_dispatch_149)?(. - _ebase_address):__vector_offset_default
 *(.vector_149)
                0x000000009d000258                . = ALIGN (0x4)
                0x0000000000000258                __vector_offset_150 = DEFINED (__vector_dispatch_150)?(. - _ebase_address):__vector_offset_default
 *(.vector_150)
                0x000000009d000258                . = ALIGN (0x4)
                0x0000000000000258                __vector_offset_151 = DEFINED (__vector_dispatch_151)?(. - _ebase_address):__vector_offset_default
 *(.vector_151)
                0x000000009d000258                . = ALIGN (0x4)
                0x0000000000000258                __vector_offset_152 = DEFINED (__vector_dispatch_152)?(. - _ebase_address):__vector_offset_default
 *(.vector_152)
                0x000000009d000258                . = ALIGN (0x4)
                0x0000000000000258                __vector_offset_153 = DEFINED (__vector_dispatch_153)?(. - _ebase_address):__vector_offset_default
 *(.vector_153)
                0x000000009d000258                . = ALIGN (0x4)
                0x0000000000000258                __vector_offset_154 = DEFINED (__vector_dispatch_154)?(. - _ebase_address):__vector_offset_default
 *(.vector_154)
                0x000000009d000258                . = ALIGN (0x4)
                0x0000000000000258                __vector_offset_155 = DEFINED (__vector_dispatch_155)?(. - _ebase_address):__vector_offset_default
 *(.vector_155)
                0x000000009d000258                . = ALIGN (0x4)
                0x0000000000000258                __vector_offset_156 = DEFINED (__vector_dispatch_156)?(. - _ebase_address):__vector_offset_default
 *(.vector_156)
                0x000000009d000258                . = ALIGN (0x4)
                0x0000000000000258                __vector_offset_157 = DEFINED (__vector_dispatch_157)?(. - _ebase_address):__vector_offset_default
 *(.vector_157)
                0x000000009d000258                . = ALIGN (0x4)
                0x0000000000000258                __vector_offset_158 = DEFINED (__vector_dispatch_158)?(. - _ebase_address):__vector_offset_default
 *(.vector_158)
                0x000000009d000258                . = ALIGN (0x4)
                0x0000000000000258                __vector_offset_159 = DEFINED (__vector_dispatch_159)?(. - _ebase_address):__vector_offset_default
 *(.vector_159)
                0x000000009d000258                . = ALIGN (0x4)
                0x0000000000000258                __vector_offset_160 = DEFINED (__vector_dispatch_160)?(. - _ebase_address):__vector_offset_default
 *(.vector_160)
                0x000000009d000258                . = ALIGN (0x4)
                0x0000000000000258                __vector_offset_161 = DEFINED (__vector_dispatch_161)?(. - _ebase_address):__vector_offset_default
 *(.vector_161)
                0x000000009d000258                . = ALIGN (0x4)
                0x0000000000000258                __vector_offset_162 = DEFINED (__vector_dispatch_162)?(. - _ebase_address):__vector_offset_default
 *(.vector_162)
                0x000000009d000258                . = ALIGN (0x4)
                0x0000000000000258                __vector_offset_163 = DEFINED (__vector_dispatch_163)?(. - _ebase_address):__vector_offset_default
 *(.vector_163)
                0x000000009d000258                . = ALIGN (0x4)
                0x0000000000000258                __vector_offset_164 = DEFINED (__vector_dispatch_164)?(. - _ebase_address):__vector_offset_default
 *(.vector_164)
                0x000000009d000258                . = ALIGN (0x4)
                0x0000000000000258                __vector_offset_165 = DEFINED (__vector_dispatch_165)?(. - _ebase_address):__vector_offset_default
 *(.vector_165)
                0x000000009d000258                . = ALIGN (0x4)
                0x0000000000000258                __vector_offset_166 = DEFINED (__vector_dispatch_166)?(. - _ebase_address):__vector_offset_default
 *(.vector_166)
                0x000000009d000258                . = ALIGN (0x4)
                0x0000000000000258                __vector_offset_167 = DEFINED (__vector_dispatch_167)?(. - _ebase_address):__vector_offset_default
 *(.vector_167)
                0x000000009d000258                . = ALIGN (0x4)
                0x0000000000000258                __vector_offset_168 = DEFINED (__vector_dispatch_168)?(. - _ebase_address):__vector_offset_default
 *(.vector_168)
                0x000000009d000258                . = ALIGN (0x4)
                0x0000000000000258                __vector_offset_169 = DEFINED (__vector_dispatch_169)?(. - _ebase_address):__vector_offset_default
 *(.vector_169)
                0x000000009d000258                . = ALIGN (0x4)
                0x0000000000000258                __vector_offset_170 = DEFINED (__vector_dispatch_170)?(. - _ebase_address):__vector_offset_default
 *(.vector_170)
                0x000000009d000258                . = ALIGN (0x4)
                0x0000000000000258                __vector_offset_171 = DEFINED (__vector_dispatch_171)?(. - _ebase_address):__vector_offset_default
 *(.vector_171)
                0x000000009d000258                . = ALIGN (0x4)
                0x0000000000000258                __vector_offset_172 = DEFINED (__vector_dispatch_172)?(. - _ebase_address):__vector_offset_default
 *(.vector_172)
                0x000000009d000258                . = ALIGN (0x4)
                0x0000000000000258                __vector_offset_173 = DEFINED (__vector_dispatch_173)?(. - _ebase_address):__vector_offset_default
 *(.vector_173)
                0x000000009d000258                . = ALIGN (0x4)
                0x0000000000000258                __vector_offset_174 = DEFINED (__vector_dispatch_174)?(. - _ebase_address):__vector_offset_default
 *(.vector_174)
                0x000000009d000258                . = ALIGN (0x4)
                0x0000000000000258                __vector_offset_175 = DEFINED (__vector_dispatch_175)?(. - _ebase_address):__vector_offset_default
 *(.vector_175)
                0x000000009d000258                . = ALIGN (0x4)
                0x0000000000000258                __vector_offset_176 = DEFINED (__vector_dispatch_176)?(. - _ebase_address):__vector_offset_default
 *(.vector_176)
                0x000000009d000258                . = ALIGN (0x4)
                0x0000000000000258                __vector_offset_177 = DEFINED (__vector_dispatch_177)?(. - _ebase_address):__vector_offset_default
 *(.vector_177)
                0x000000009d000258                . = ALIGN (0x4)
                0x0000000000000258                __vector_offset_178 = DEFINED (__vector_dispatch_178)?(. - _ebase_address):__vector_offset_default
 *(.vector_178)
                0x000000009d000258                . = ALIGN (0x4)
                0x0000000000000258                __vector_offset_179 = DEFINED (__vector_dispatch_179)?(. - _ebase_address):__vector_offset_default
 *(.vector_179)
                0x000000009d000258                . = ALIGN (0x4)
                0x0000000000000258                __vector_offset_180 = DEFINED (__vector_dispatch_180)?(. - _ebase_address):__vector_offset_default
 *(.vector_180)
                0x000000009d000258                . = ALIGN (0x4)
                0x0000000000000258                __vector_offset_181 = DEFINED (__vector_dispatch_181)?(. - _ebase_address):__vector_offset_default
 *(.vector_181)
                0x000000009d000258                . = ALIGN (0x4)
                0x0000000000000258                __vector_offset_182 = DEFINED (__vector_dispatch_182)?(. - _ebase_address):__vector_offset_default
 *(.vector_182)
                0x000000009d000258                . = ALIGN (0x4)
                0x0000000000000258                __vector_offset_183 = DEFINED (__vector_dispatch_183)?(. - _ebase_address):__vector_offset_default
 *(.vector_183)
                0x000000009d000258                . = ALIGN (0x4)
                0x0000000000000258                __vector_offset_184 = DEFINED (__vector_dispatch_184)?(. - _ebase_address):__vector_offset_default
 *(.vector_184)
                0x000000009d000258                . = ALIGN (0x4)
                0x0000000000000258                __vector_offset_185 = DEFINED (__vector_dispatch_185)?(. - _ebase_address):__vector_offset_default
 *(.vector_185)
                0x000000009d000258                . = ALIGN (0x4)
                0x0000000000000258                __vector_offset_186 = DEFINED (__vector_dispatch_186)?(. - _ebase_address):__vector_offset_default
 *(.vector_186)
                0x000000009d000258                . = ALIGN (0x4)
                0x0000000000000258                __vector_offset_187 = DEFINED (__vector_dispatch_187)?(. - _ebase_address):__vector_offset_default
 *(.vector_187)
                0x000000009d000258                . = ALIGN (0x4)
                0x0000000000000258                __vector_offset_188 = DEFINED (__vector_dispatch_188)?(. - _ebase_address):__vector_offset_default
 *(.vector_188)
                0x000000009d000258                . = ALIGN (0x4)
                0x0000000000000258                __vector_offset_189 = DEFINED (__vector_dispatch_189)?(. - _ebase_address):__vector_offset_default
 *(.vector_189)
                0x000000009d000258                . = ALIGN (0x4)
                0x0000000000000258                __vector_offset_190 = DEFINED (__vector_dispatch_190)?(. - _ebase_address):__vector_offset_default
 *(.vector_190)
                0x000000009d000258                . = ALIGN (0x4)
                0x0000000000000258                __vector_offset_191 = DEFINED (__vector_dispatch_191)?(. - _ebase_address):__vector_offset_default
 *(.vector_191)
                0x000000009d000258                . = ALIGN (0x4)
                0x0000000000000258                __vector_offset_192 = DEFINED (__vector_dispatch_192)?(. - _ebase_address):__vector_offset_default
 *(.vector_192)
                0x000000009d000258                . = ALIGN (0x4)
                0x0000000000000258                __vector_offset_193 = DEFINED (__vector_dispatch_193)?(. - _ebase_address):__vector_offset_default
 *(.vector_193)
                0x000000009d000258                . = ALIGN (0x4)
                0x0000000000000258                __vector_offset_194 = DEFINED (__vector_dispatch_194)?(. - _ebase_address):__vector_offset_default
 *(.vector_194)
                0x000000009d000258                . = ALIGN (0x4)
                0x0000000000000258                __vector_offset_195 = DEFINED (__vector_dispatch_195)?(. - _ebase_address):__vector_offset_default
 *(.vector_195)
                0x000000009d000258                . = ALIGN (0x4)
                0x0000000000000258                __vector_offset_196 = DEFINED (__vector_dispatch_196)?(. - _ebase_address):__vector_offset_default
 *(.vector_196)
                0x000000009d000258                . = ALIGN (0x4)
                0x0000000000000258                __vector_offset_197 = DEFINED (__vector_dispatch_197)?(. - _ebase_address):__vector_offset_default
 *(.vector_197)
                0x000000009d000258                . = ALIGN (0x4)
                0x0000000000000258                __vector_offset_198 = DEFINED (__vector_dispatch_198)?(. - _ebase_address):__vector_offset_default
 *(.vector_198)
                0x000000009d000258                . = ALIGN (0x4)
                0x0000000000000258                __vector_offset_199 = DEFINED (__vector_dispatch_199)?(. - _ebase_address):__vector_offset_default
 *(.vector_199)
                0x000000009d000258                . = ALIGN (0x4)
                0x0000000000000258                __vector_offset_200 = DEFINED (__vector_dispatch_200)?(. - _ebase_address):__vector_offset_default
 *(.vector_200)
                0x000000009d000258                . = ALIGN (0x4)
                0x0000000000000258                __vector_offset_201 = DEFINED (__vector_dispatch_201)?(. - _ebase_address):__vector_offset_default
 *(.vector_201)
                0x000000009d000258                . = ALIGN (0x4)
                0x0000000000000258                __vector_offset_202 = DEFINED (__vector_dispatch_202)?(. - _ebase_address):__vector_offset_default
 *(.vector_202)
                0x000000009d000258                . = ALIGN (0x4)
                0x0000000000000258                __vector_offset_203 = DEFINED (__vector_dispatch_203)?(. - _ebase_address):__vector_offset_default
 *(.vector_203)
                0x000000009d000258                . = ALIGN (0x4)
                0x0000000000000258                __vector_offset_204 = DEFINED (__vector_dispatch_204)?(. - _ebase_address):__vector_offset_default
 *(.vector_204)
                0x000000009d000258                . = ALIGN (0x4)
                0x0000000000000258                __vector_offset_205 = DEFINED (__vector_dispatch_205)?(. - _ebase_address):__vector_offset_default
 *(.vector_205)
                0x000000009d000258                . = ALIGN (0x4)
                0x0000000000000258                __vector_offset_206 = DEFINED (__vector_dispatch_206)?(. - _ebase_address):__vector_offset_default
 *(.vector_206)
                0x000000009d000258                . = ALIGN (0x4)
                0x0000000000000258                __vector_offset_207 = DEFINED (__vector_dispatch_207)?(. - _ebase_address):__vector_offset_default
 *(.vector_207)
                0x000000009d000258                . = ALIGN (0x4)
                0x0000000000000258                __vector_offset_208 = DEFINED (__vector_dispatch_208)?(. - _ebase_address):__vector_offset_default
 *(.vector_208)
                0x000000009d000258                . = ALIGN (0x4)
                0x0000000000000258                __vector_offset_209 = DEFINED (__vector_dispatch_209)?(. - _ebase_address):__vector_offset_default
 *(.vector_209)
                0x000000009d000258                . = ALIGN (0x4)
                0x0000000000000258                __vector_offset_210 = DEFINED (__vector_dispatch_210)?(. - _ebase_address):__vector_offset_default
 *(.vector_210)
                0x000000009d000258                . = ALIGN (0x4)
                0x0000000000000258                __vector_offset_211 = DEFINED (__vector_dispatch_211)?(. - _ebase_address):__vector_offset_default
 *(.vector_211)
                0x000000009d000258                . = ALIGN (0x4)
                0x0000000000000258                __vector_offset_212 = DEFINED (__vector_dispatch_212)?(. - _ebase_address):__vector_offset_default
 *(.vector_212)
                0x000000009d000258                . = ALIGN (0x4)
                0x0000000000000258                __vector_offset_213 = DEFINED (__vector_dispatch_213)?(. - _ebase_address):__vector_offset_default
 *(.vector_213)
                0x000000009d000258                . = ALIGN (0x4)
                0x0000000000000258                __vector_offset_214 = DEFINED (__vector_dispatch_214)?(. - _ebase_address):__vector_offset_default
 *(.vector_214)
                0x000000009d000258                . = ALIGN (0x4)
                0x0000000000000258                __vector_offset_215 = DEFINED (__vector_dispatch_215)?(. - _ebase_address):__vector_offset_default
 *(.vector_215)
                0x000000009d000258                . = ALIGN (0x4)
                0x0000000000000258                __vector_offset_216 = DEFINED (__vector_dispatch_216)?(. - _ebase_address):__vector_offset_default
 *(.vector_216)
                0x000000009d000258                . = ALIGN (0x4)
                0x0000000000000258                __vector_offset_217 = DEFINED (__vector_dispatch_217)?(. - _ebase_address):__vector_offset_default
 *(.vector_217)
                0x000000009d000258                . = ALIGN (0x4)
                0x0000000000000258                __vector_offset_218 = DEFINED (__vector_dispatch_218)?(. - _ebase_address):__vector_offset_default
 *(.vector_218)
                0x000000009d000258                . = ALIGN (0x4)
                0x0000000000000258                __vector_offset_219 = DEFINED (__vector_dispatch_219)?(. - _ebase_address):__vector_offset_default
 *(.vector_219)
                0x000000009d000258                . = ALIGN (0x4)
                0x0000000000000258                __vector_offset_220 = DEFINED (__vector_dispatch_220)?(. - _ebase_address):__vector_offset_default
 *(.vector_220)
                0x000000009d000258                . = ALIGN (0x4)
                0x0000000000000258                __vector_offset_221 = DEFINED (__vector_dispatch_221)?(. - _ebase_address):__vector_offset_default
 *(.vector_221)
                0x000000009d000258                . = ALIGN (0x4)
                0x0000000000000258                __vector_offset_222 = DEFINED (__vector_dispatch_222)?(. - _ebase_address):__vector_offset_default
 *(.vector_222)
                0x000000009d000258                . = ALIGN (0x4)
                0x0000000000000258                __vector_offset_223 = DEFINED (__vector_dispatch_223)?(. - _ebase_address):__vector_offset_default
 *(.vector_223)
                0x000000009d000258                . = ALIGN (0x4)
                0x0000000000000258                __vector_offset_224 = DEFINED (__vector_dispatch_224)?(. - _ebase_address):__vector_offset_default
 *(.vector_224)
                0x000000009d000258                . = ALIGN (0x4)
                0x0000000000000258                __vector_offset_225 = DEFINED (__vector_dispatch_225)?(. - _ebase_address):__vector_offset_default
 *(.vector_225)
                0x000000009d000258                . = ALIGN (0x4)
                0x0000000000000258                __vector_offset_226 = DEFINED (__vector_dispatch_226)?(. - _ebase_address):__vector_offset_default
 *(.vector_226)
                0x000000009d000258                . = ALIGN (0x4)
                0x0000000000000258                __vector_offset_227 = DEFINED (__vector_dispatch_227)?(. - _ebase_address):__vector_offset_default
 *(.vector_227)
                0x000000009d000258                . = ALIGN (0x4)
                0x0000000000000258                __vector_offset_228 = DEFINED (__vector_dispatch_228)?(. - _ebase_address):__vector_offset_default
 *(.vector_228)
                0x000000009d000258                . = ALIGN (0x4)
                0x0000000000000258                __vector_offset_229 = DEFINED (__vector_dispatch_229)?(. - _ebase_address):__vector_offset_default
 *(.vector_229)
                0x000000009d000258                . = ALIGN (0x4)
                0x0000000000000258                __vector_offset_230 = DEFINED (__vector_dispatch_230)?(. - _ebase_address):__vector_offset_default
 *(.vector_230)
                0x000000009d000258                . = ALIGN (0x4)
                0x0000000000000258                __vector_offset_231 = DEFINED (__vector_dispatch_231)?(. - _ebase_address):__vector_offset_default
 *(.vector_231)
                0x000000009d000258                . = ALIGN (0x4)
                0x0000000000000258                __vector_offset_232 = DEFINED (__vector_dispatch_232)?(. - _ebase_address):__vector_offset_default
 *(.vector_232)
                0x000000009d000258                . = ALIGN (0x4)
                0x0000000000000258                __vector_offset_233 = DEFINED (__vector_dispatch_233)?(. - _ebase_address):__vector_offset_default
 *(.vector_233)
                0x000000009d000258                . = ALIGN (0x4)
                0x0000000000000258                __vector_offset_234 = DEFINED (__vector_dispatch_234)?(. - _ebase_address):__vector_offset_default
 *(.vector_234)
                0x000000009d000258                . = ALIGN (0x4)
                0x0000000000000258                __vector_offset_235 = DEFINED (__vector_dispatch_235)?(. - _ebase_address):__vector_offset_default
 *(.vector_235)
                0x000000009d000258                . = ALIGN (0x4)
                0x0000000000000258                __vector_offset_236 = DEFINED (__vector_dispatch_236)?(. - _ebase_address):__vector_offset_default
 *(.vector_236)
                0x000000009d000258                . = ALIGN (0x4)
                0x0000000000000258                __vector_offset_237 = DEFINED (__vector_dispatch_237)?(. - _ebase_address):__vector_offset_default
 *(.vector_237)
                0x000000009d000258                . = ALIGN (0x4)
                0x0000000000000258                __vector_offset_238 = DEFINED (__vector_dispatch_238)?(. - _ebase_address):__vector_offset_default
 *(.vector_238)
                0x000000009d000258                . = ALIGN (0x4)
                0x0000000000000258                __vector_offset_239 = DEFINED (__vector_dispatch_239)?(. - _ebase_address):__vector_offset_default
 *(.vector_239)
                0x000000009d000258                . = ALIGN (0x4)
                0x0000000000000258                __vector_offset_240 = DEFINED (__vector_dispatch_240)?(. - _ebase_address):__vector_offset_default
 *(.vector_240)
                0x000000009d000258                . = ALIGN (0x4)
                0x0000000000000258                __vector_offset_241 = DEFINED (__vector_dispatch_241)?(. - _ebase_address):__vector_offset_default
 *(.vector_241)
                0x000000009d000258                . = ALIGN (0x4)
                0x0000000000000258                __vector_offset_242 = DEFINED (__vector_dispatch_242)?(. - _ebase_address):__vector_offset_default
 *(.vector_242)
                0x000000009d000258                . = ALIGN (0x4)
                0x0000000000000258                __vector_offset_243 = DEFINED (__vector_dispatch_243)?(. - _ebase_address):__vector_offset_default
 *(.vector_243)
                0x000000009d000258                . = ALIGN (0x4)
                0x0000000000000258                __vector_offset_244 = DEFINED (__vector_dispatch_244)?(. - _ebase_address):__vector_offset_default
 *(.vector_244)
                0x000000009d000258                . = ALIGN (0x4)
                0x0000000000000258                __vector_offset_245 = DEFINED (__vector_dispatch_245)?(. - _ebase_address):__vector_offset_default
 *(.vector_245)
                0x000000009d000258                . = ALIGN (0x4)
                0x0000000000000258                __vector_offset_246 = DEFINED (__vector_dispatch_246)?(. - _ebase_address):__vector_offset_default
 *(.vector_246)
                0x000000009d000258                . = ALIGN (0x4)
                0x0000000000000258                __vector_offset_247 = DEFINED (__vector_dispatch_247)?(. - _ebase_address):__vector_offset_default
 *(.vector_247)
                0x000000009d000258                . = ALIGN (0x4)
                0x0000000000000258                __vector_offset_248 = DEFINED (__vector_dispatch_248)?(. - _ebase_address):__vector_offset_default
 *(.vector_248)
                0x000000009d000258                . = ALIGN (0x4)
                0x0000000000000258                __vector_offset_249 = DEFINED (__vector_dispatch_249)?(. - _ebase_address):__vector_offset_default
 *(.vector_249)
                0x000000009d000258                . = ALIGN (0x4)
                0x0000000000000258                __vector_offset_250 = DEFINED (__vector_dispatch_250)?(. - _ebase_address):__vector_offset_default
 *(.vector_250)
                0x000000009d000258                . = ALIGN (0x4)
                0x0000000000000258                __vector_offset_251 = DEFINED (__vector_dispatch_251)?(. - _ebase_address):__vector_offset_default
 *(.vector_251)
                0x000000009d000258                . = ALIGN (0x4)
                0x0000000000000258                __vector_offset_252 = DEFINED (__vector_dispatch_252)?(. - _ebase_address):__vector_offset_default
 *(.vector_252)
                0x000000009d000258                . = ALIGN (0x4)
                0x0000000000000258                __vector_offset_253 = DEFINED (__vector_dispatch_253)?(. - _ebase_address):__vector_offset_default
 *(.vector_253)
                0x000000009d000258                . = ALIGN (0x4)
                0x0000000000000258                __vector_offset_254 = DEFINED (__vector_dispatch_254)?(. - _ebase_address):__vector_offset_default
 *(.vector_254)
                0x000000009d000258                . = ALIGN (0x4)
                0x0000000000000258                __vector_offset_255 = DEFINED (__vector_dispatch_255)?(. - _ebase_address):__vector_offset_default
 *(.vector_255)
                0x000000009d000258                . = ALIGN (0x4)
                0x0000000000000258                __vector_offset_default = (. - _ebase_address)
 *(.vector_default)
 .vector_default
                0x000000009d000258       0x48 c:/program files/microchip/xc32/v4.35/bin/bin/../../lib/gcc/pic32mx/8.3.1/../../../../pic32mx/lib/fpu64\libpic32.a(defaultinterrupt.o)
                0x000000009d000258                _DefaultInterrupt

.startup
 *(.startup)

.text           0x000000009d0002a0        0x0
 *(.stub .gnu.linkonce.t.*)
 *(.text.*personality*)
 *(.mips16.fn.*)
 *(.mips16.call.*)
 *(.gnu.warning)
                0x000000009d0002a0                . = ALIGN (0x4)

.init           0x000000009d0002a0        0x0
 *crti.o(.init)
 *crtbegin.o(.init)
 *(EXCLUDE_FILE(*crtn.o *crtend?.o *crtend.o) .init)
 *crtend.o(.init)
 *crtn.o(.init)
                0x000000009d0002a0                . = ALIGN (0x4)

.fini           0x000000009d0002a0        0x0
 *(.fini)
                0x000000009d0002a0                . = ALIGN (0x4)

.preinit_array  0x000000009d0002a0        0x0
                [!provide]                        PROVIDE (__preinit_array_start = .)
 *(.preinit_array)
                [!provide]                        PROVIDE (__preinit_array_end = .)
                0x000000009d0002a0                . = ALIGN (0x4)

.init_array     0x000000009d0002a0        0x0
                [!provide]                        PROVIDE (__init_array_start = .)
 *(SORT_BY_NAME(.init_array.*))
 *(.init_array)
                [!provide]                        PROVIDE (__init_array_end = .)
                0x000000009d0002a0                . = ALIGN (0x4)

.fini_array     0x000000009d0002a0        0x0
                [!provide]                        PROVIDE (__fini_array_start = .)
 *(SORT_BY_NAME(.fini_array.*))
 *(.fini_array)
                [!provide]                        PROVIDE (__fini_array_end = .)
                0x000000009d0002a0                . = ALIGN (0x4)

.ctors          0x000000009d0002a0        0x0
 *crtbegin.o(.ctors)
 *crtbegin?.o(.ctors)
 *(EXCLUDE_FILE(*crtend?.o *crtend.o) .ctors)
 *(SORT_BY_NAME(.ctors.*))
 *(.ctors)
                0x000000009d0002a0                . = ALIGN (0x4)

.dtors          0x000000009d0002a0        0x0
 *crtbegin.o(.dtors)
 *crtbegin?.o(.dtors)
 *(EXCLUDE_FILE(*crtend?.o *crtend.o) .dtors)
 *(SORT_BY_NAME(.dtors.*))
 *(.dtors)
                0x000000009d0002a0                . = ALIGN (0x4)

.rodata         0x000000009d0002a0        0x0
 *(.gnu.linkonce.r.*)
 *(.rodata1)
                0x000000009d0002a0                . = ALIGN (0x4)

.sdata2         0x000000009d0002a0        0x0
 *(.sdata2 .sdata2.* .gnu.linkonce.s2.*)
                0x000000009d0002a0                . = ALIGN (0x4)

.sbss2          0x000000009d0002a0        0x0
 *(.sbss2 .sbss2.* .gnu.linkonce.sb2.*)
                0x000000009d0002a0                . = ALIGN (0x4)

.eh_frame_hdr
 *(.eh_frame_hdr)
                0x000000009d0002a0                . = ALIGN (0x4)

.eh_frame
 *(.eh_frame)
                0x000000009d0002a0                . = ALIGN (0x4)

.gcc_except_table
 *(.gcc_except_table .gcc_except_table.*)
                0x000000009d0002a0                . = ALIGN (0x4)

.dbg_data       0x0000000080000370        0x0
                0x0000000080000370                . = (. + DEFINED (_DEBUGGER)?0x200:0x0)
                0x0000000080000370                . = (. + DEFINED (_DEBUGGER)?0x80:0x0)
                0x0000000080000370                . = (. + DEFINED (_DEBUGGER)?0x100:0x0)

.jcr            0x0000000080000370        0x0
 *(.jcr)
                0x0000000080000370                . = ALIGN (0x4)

.eh_frame
 *(.eh_frame)
                0x0000000080000370                . = ALIGN (0x4)

.gcc_except_table
 *(.gcc_except_table .gcc_except_table.*)
                0x0000000080000370                . = ALIGN (0x4)

.persist        0x0000000080000370        0x0
                0x0000000080000370                _persist_begin = .
 *(.persist .persist.*)
                0x0000000080000370                . = ALIGN (0x4)
                0x0000000080000370                _persist_end = .

.data           0x0000000080000370        0x0
 *(.gnu.linkonce.d.*)
 *(.data1)
                0x0000000080000370                . = ALIGN (0x4)
                0x0000000080000370                . = .
                0x0000000080008360                _gp = (ALIGN (0x10) + 0x7ff0)

.got            0x0000000080000370        0x0
 *(.got.plt)
 *(.got)
                0x0000000080000370                . = ALIGN (0x4)

.sdata          0x0000000080000370        0xc
                0x0000000080000370                _sdata_begin = .
 *(.sdata .sdata.* .gnu.linkonce.s.*)
 .sdata.compareValue
                0x0000000080000370        0x4 build/Config_2/debug/_ext/1249264884/plib_coretimer.o
 .sdata.APPS_Voltage
                0x0000000080000374        0x4 build/Config_2/debug/APPS.o
                0x0000000080000374                APPS_Voltage
 .sdata.APPS_Bit_Resolution
                0x0000000080000378        0x2 build/Config_2/debug/APPS.o
                0x0000000080000378                APPS_Bit_Resolution
                0x000000008000037c                . = ALIGN (0x4)
 *fill*         0x000000008000037a        0x2 
                0x000000008000037c                _sdata_end = .

.lit8
 *(.lit8)

.lit4
 *(.lit4)
                0x000000008000037c                . = ALIGN (0x4)
                0x000000008000037c                _data_end = .
                0x000000008000037c                _bss_begin = .

.sbss           0x000000008000037c       0xa8
                0x000000008000037c                _sbss_begin = .
 *(.dynsbss)
 *(.sbss .sbss.* .gnu.linkonce.sb.*)
 .sbss.sequence.34836
                0x000000008000037c        0x4 build/Config_2/debug/_ext/1984168316/plib_canfd3.o
 .sbss.sequence.34836
                0x0000000080000380        0x4 build/Config_2/debug/_ext/1984168316/plib_canfd2.o
 .sbss.sequence.34836
                0x0000000080000384        0x4 build/Config_2/debug/_ext/1984168316/plib_canfd4.o
 .sbss.tmr2Obj  0x0000000080000388        0x8 build/Config_2/debug/_ext/60181895/plib_tmr2.o
 .sbss.tmr4Obj  0x0000000080000390        0x8 build/Config_2/debug/_ext/60181895/plib_tmr4.o
 .sbss.tmr3Obj  0x0000000080000398        0x8 build/Config_2/debug/_ext/60181895/plib_tmr3.o
 .sbss.tmr6Obj  0x00000000800003a0        0x8 build/Config_2/debug/_ext/60181895/plib_tmr6.o
 .sbss.tmr5Obj  0x00000000800003a8        0x8 build/Config_2/debug/_ext/60181895/plib_tmr5.o
 .sbss.tmr1Obj  0x00000000800003b0        0x8 build/Config_2/debug/_ext/1865638794/plib_tmr1.o
 .sbss.oldestIndex.35993
                0x00000000800003b8        0x4 build/Config_2/debug/_ext/1360937237/main.o
 .sbss.sum.35992
                0x00000000800003bc        0x2 build/Config_2/debug/_ext/1360937237/main.o
 *fill*         0x00000000800003be        0x2 
 .sbss.oldestIndex.35990
                0x00000000800003c0        0x4 build/Config_2/debug/_ext/1360937237/main.o
 .sbss.sum.35989
                0x00000000800003c4        0x2 build/Config_2/debug/_ext/1360937237/main.o
 .sbss.i.35925  0x00000000800003c6        0x1 build/Config_2/debug/_ext/1360937237/main.o
 .sbss.AS_Emergency
                0x00000000800003c7        0x1 build/Config_2/debug/_ext/1360937237/main.o
                0x00000000800003c7                AS_Emergency
 .sbss.RPM      0x00000000800003c8        0x2 build/Config_2/debug/_ext/1360937237/main.o
                0x00000000800003c8                RPM
 .sbss.Inverter_Voltage
                0x00000000800003ca        0x2 build/Config_2/debug/_ext/1360937237/main.o
                0x00000000800003ca                Inverter_Voltage
 .sbss.VcuState
                0x00000000800003cc        0x1 build/Config_2/debug/_ext/1360937237/main.o
                0x00000000800003cc                VcuState
 .sbss.LMT2     0x00000000800003cd        0x1 build/Config_2/debug/_ext/1360937237/main.o
                0x00000000800003cd                LMT2
 .sbss.LMT1     0x00000000800003ce        0x1 build/Config_2/debug/_ext/1360937237/main.o
                0x00000000800003ce                LMT1
 *fill*         0x00000000800003cf        0x1 
 .sbss.Inverter_Faults
                0x00000000800003d0        0x2 build/Config_2/debug/_ext/1360937237/main.o
                0x00000000800003d0                Inverter_Faults
 *fill*         0x00000000800003d2        0x2 
 .sbss.Current_Power
                0x00000000800003d4        0x4 build/Config_2/debug/_ext/1360937237/main.o
                0x00000000800003d4                Current_Power
 .sbss.Target_Power
                0x00000000800003d8        0x4 build/Config_2/debug/_ext/1360937237/main.o
                0x00000000800003d8                Target_Power
 .sbss.Brake_Pressure
                0x00000000800003dc        0x1 build/Config_2/debug/_ext/1360937237/main.o
                0x00000000800003dc                Brake_Pressure
 .sbss.Throttle
                0x00000000800003dd        0x1 build/Config_2/debug/_ext/1360937237/main.o
                0x00000000800003dd                Throttle
 .sbss.ADC_Filtered_3
                0x00000000800003de        0x2 build/Config_2/debug/_ext/1360937237/main.o
                0x00000000800003de                ADC_Filtered_3
 .sbss.ADC_Filtered_0
                0x00000000800003e0        0x2 build/Config_2/debug/_ext/1360937237/main.o
                0x00000000800003e0                ADC_Filtered_0
 .sbss.Ready2Drive
                0x00000000800003e2        0x1 build/Config_2/debug/_ext/1360937237/main.o
                0x00000000800003e2                Ready2Drive
 .sbss.IsAutonomousMode
                0x00000000800003e3        0x1 build/Config_2/debug/_ext/1360937237/main.o
                0x00000000800003e3                IsAutonomousMode
 .sbss.TCU_Autonomous_ignition
                0x00000000800003e4        0x1 build/Config_2/debug/_ext/1360937237/main.o
                0x00000000800003e4                TCU_Autonomous_ignition
 .sbss.RES_AD_Ignition
                0x00000000800003e5        0x1 build/Config_2/debug/_ext/1360937237/main.o
                0x00000000800003e5                RES_AD_Ignition
 .sbss.AS_Emergency_as_played
                0x00000000800003e6        0x1 build/Config_2/debug/_ext/1360937237/main.o
                0x00000000800003e6                AS_Emergency_as_played
 .sbss.R2DS_as_played
                0x00000000800003e7        0x1 build/Config_2/debug/_ext/1360937237/main.o
                0x00000000800003e7                R2DS_as_played
 .sbss.BUZZER_ON
                0x00000000800003e8        0x1 build/Config_2/debug/_ext/1360937237/main.o
                0x00000000800003e8                BUZZER_ON
 .sbss.LED_CANRX_MODE
                0x00000000800003e9        0x1 build/Config_2/debug/_ext/1360937237/main.o
                0x00000000800003e9                LED_CANRX_MODE
 *fill*         0x00000000800003ea        0x2 
 .sbss.CANTX_ON
                0x00000000800003ec        0x4 build/Config_2/debug/_ext/1360937237/main.o
                0x00000000800003ec                CANTX_ON
 .sbss.CANRX_ON
                0x00000000800003f0        0x4 build/Config_2/debug/_ext/1360937237/main.o
                0x00000000800003f0                CANRX_ON
 .sbss.IsAutonomous
                0x00000000800003f4        0x1 build/Config_2/debug/_ext/1360937237/main.o
                0x00000000800003f4                IsAutonomous
 *fill*         0x00000000800003f5        0x3 
 .sbss.PDM_Voltage
                0x00000000800003f8        0x4 build/Config_2/debug/_ext/1360937237/main.o
                0x00000000800003f8                PDM_Voltage
 .sbss.PDM_Current
                0x00000000800003fc        0x4 build/Config_2/debug/_ext/1360937237/main.o
                0x00000000800003fc                PDM_Current
 .sbss.lastTime.2019
                0x0000000080000400        0x4 build/Config_2/debug/APPS.o
 .sbss.APPS_Error
                0x0000000080000404        0x1 build/Config_2/debug/APPS.o
                0x0000000080000404                APPS_Error
 *fill*         0x0000000080000405        0x1 
 .sbss.APPS_functional_region
                0x0000000080000406        0x2 build/Config_2/debug/APPS.o
                0x0000000080000406                APPS_functional_region
 .sbss.APPS_Percentage_1000
                0x0000000080000408        0x2 build/Config_2/debug/APPS.o
                0x0000000080000408                APPS_Percentage_1000
 .sbss.APPS_Percentage
                0x000000008000040a        0x2 build/Config_2/debug/APPS.o
                0x000000008000040a                APPS_Percentage
 .sbss.APPS_Mean
                0x000000008000040c        0x2 build/Config_2/debug/APPS.o
                0x000000008000040c                APPS_Mean
 .sbss.APPS2    0x000000008000040e        0x2 build/Config_2/debug/APPS.o
                0x000000008000040e                APPS2
 .sbss.APPS1    0x0000000080000410        0x2 build/Config_2/debug/APPS.o
                0x0000000080000410                APPS1
 .sbss.APPS_Tolerance_bits
                0x0000000080000412        0x2 build/Config_2/debug/APPS.o
                0x0000000080000412                APPS_Tolerance_bits
 .sbss.APPS_MAX_bits
                0x0000000080000414        0x2 build/Config_2/debug/APPS.o
                0x0000000080000414                APPS_MAX_bits
 .sbss.APPS_MIN_bits
                0x0000000080000416        0x2 build/Config_2/debug/APPS.o
                0x0000000080000416                APPS_MIN_bits
 .sbss.msgAttr  0x0000000080000418        0x4 build/Config_2/debug/CAN_utils.o
                0x0000000080000418                msgAttr
 .sbss.RPM_TOJAL
                0x000000008000041c        0x4 build/Config_2/debug/CAN_utils.o
                0x000000008000041c                RPM_TOJAL
 .sbss.TOJAL_RX_RPM
                0x0000000080000420        0x2 build/Config_2/debug/CAN_utils.o
                0x0000000080000420                TOJAL_RX_RPM
 *(.scommon)
                0x0000000080000422                _sbss_end = .
                0x0000000080000424                . = ALIGN (0x4)
 *fill*         0x0000000080000422        0x2 

.bss            0x0000000080000424        0x0
 *(.dynbss)
 *(COMMON)
                0x0000000080000424                . = ALIGN ((. != 0x0)?0x4:0x1)
                0x0000000080000424                . = ALIGN (0x4)
                0x0000000080000424                _end = .
                0x0000000080000424                _bss_end = .
                0x0000000000040000                _bmxdudba_address = LENGTH (kseg0_data_mem)
                0x0000000000040000                _bmxdupba_address = LENGTH (kseg0_data_mem)

/DISCARD/
 *(.pdr)
 *(.rel.dyn)
 *(.note.GNU-stack)
 *(.note.GNU-stack)
 *(.gnu_debuglink)
 *(.gnu.lto_*)
 *(.discard)

.gptab.sdata
 *(.gptab.data)
 *(.gptab.sdata)

.gptab.sbss
 *(.gptab.bss)
 *(.gptab.sbss)

.mdebug.abi32   0x0000000000000000        0x0
 *(.mdebug.abi32)
 .mdebug.abi32  0x0000000000000000        0x0 c:/program files/microchip/xc32/v4.35/bin/bin/../../lib/gcc/pic32mx/8.3.1/../../../../pic32mx/lib/fpu64\software-debug-break.o
 .mdebug.abi32  0x0000000000000000        0x0 build/Config_2/debug/_ext/1982400153/plib_adchs.o
 .mdebug.abi32  0x0000000000000000        0x0 build/Config_2/debug/_ext/1984168316/plib_canfd1.o
 .mdebug.abi32  0x0000000000000000        0x0 build/Config_2/debug/_ext/1984168316/plib_canfd3.o
 .mdebug.abi32  0x0000000000000000        0x0 build/Config_2/debug/_ext/1984168316/plib_canfd2.o
 .mdebug.abi32  0x0000000000000000        0x0 build/Config_2/debug/_ext/1984168316/plib_canfd4.o
 .mdebug.abi32  0x0000000000000000        0x0 build/Config_2/debug/_ext/60165520/plib_clk.o
 .mdebug.abi32  0x0000000000000000        0x0 build/Config_2/debug/_ext/1249264884/plib_coretimer.o
 .mdebug.abi32  0x0000000000000000        0x0 build/Config_2/debug/_ext/1865161661/plib_dmac.o
 .mdebug.abi32  0x0000000000000000        0x0 build/Config_2/debug/_ext/1865200349/plib_evic.o
 .mdebug.abi32  0x0000000000000000        0x0 build/Config_2/debug/_ext/1865254177/plib_gpio.o
 .mdebug.abi32  0x0000000000000000        0x0 build/Config_2/debug/_ext/60181895/plib_tmr2.o
 .mdebug.abi32  0x0000000000000000        0x0 build/Config_2/debug/_ext/60181895/plib_tmr4.o
 .mdebug.abi32  0x0000000000000000        0x0 build/Config_2/debug/_ext/60181895/plib_tmr3.o
 .mdebug.abi32  0x0000000000000000        0x0 build/Config_2/debug/_ext/60181895/plib_tmr6.o
 .mdebug.abi32  0x0000000000000000        0x0 build/Config_2/debug/_ext/60181895/plib_tmr5.o
 .mdebug.abi32  0x0000000000000000        0x0 build/Config_2/debug/_ext/1865638794/plib_tmr1.o
 .mdebug.abi32  0x0000000000000000        0x0 build/Config_2/debug/_ext/1865657120/plib_uart1.o
 .mdebug.abi32  0x0000000000000000        0x0 build/Config_2/debug/_ext/1865657120/plib_uart3.o
 .mdebug.abi32  0x0000000000000000        0x0 build/Config_2/debug/_ext/60184501/plib_wdt.o
 .mdebug.abi32  0x0000000000000000        0x0 build/Config_2/debug/_ext/163028504/xc32_monitor.o
 .mdebug.abi32  0x0000000000000000        0x0 build/Config_2/debug/_ext/1171490990/initialization.o
 .mdebug.abi32  0x0000000000000000        0x0 build/Config_2/debug/_ext/1171490990/interrupts.o
 .mdebug.abi32  0x0000000000000000        0x0 build/Config_2/debug/_ext/1171490990/exceptions.o
 .mdebug.abi32  0x0000000000000000        0x0 build/Config_2/debug/_ext/1360937237/main.o
 .mdebug.abi32  0x0000000000000000        0x0 build/Config_2/debug/APPS.o
 .mdebug.abi32  0x0000000000000000        0x0 build/Config_2/debug/CAN_utils.o
 .mdebug.abi32  0x0000000000000000        0x0 build/Config_2/debug/_ext/772537440/cansart.o
 .mdebug.abi32  0x0000000000000000        0x0 build/Config_2/debug/_ext/772537440/cansartP.o
 .mdebug.abi32  0x0000000000000000        0x0 build/Config_2/debug/TorqueControl.o
 .mdebug.abi32  0x0000000000000000        0x0 c:/program files/microchip/xc32/v4.35/bin/bin/../../lib/gcc/pic32mx/8.3.1/../../../../pic32mx/lib/fpu64\libpic32.a(default-on-reset.o)
 .mdebug.abi32  0x0000000000000000        0x0 c:/program files/microchip/xc32/v4.35/bin/bin/../../lib/gcc/pic32mx/8.3.1/../../../../pic32mx/lib/fpu64\libpic32.a(default-on-bootstrap.o)
 .mdebug.abi32  0x0000000000000000        0x0 c:/program files/microchip/xc32/v4.35/bin/bin/../../lib/gcc/pic32mx/8.3.1/../../../../pic32mx/lib/fpu64\libpic32.a(defaultinterrupt.o)
 .mdebug.abi32  0x0000000000000000        0x0 c:/program files/microchip/xc32/v4.35/bin/bin/../../lib/gcc/pic32mx/8.3.1/../../../../pic32mx/lib/fpu64\libc-musl.a(__sio_printf_dn.o)
 .mdebug.abi32  0x0000000000000000        0x0 c:/program files/microchip/xc32/v4.35/bin/bin/../../lib/gcc/pic32mx/8.3.1/../../../../pic32mx/lib/fpu64\libc-musl.a(__fmt_d.o)
 .mdebug.abi32  0x0000000000000000        0x0 c:/program files/microchip/xc32/v4.35/bin/bin/../../lib/gcc/pic32mx/8.3.1/../../../../pic32mx/lib/fpu64\libc-musl.a(__pop_int.o)
 .mdebug.abi32  0x0000000000000000        0x0 c:/program files/microchip/xc32/v4.35/bin/bin/../../lib/gcc/pic32mx/8.3.1/../../../../pic32mx/lib/fpu64\libc-musl.a(__pop_ptr.o)
 .mdebug.abi32  0x0000000000000000        0x0 c:/program files/microchip/xc32/v4.35/bin/bin/../../lib/gcc/pic32mx/8.3.1/../../../../pic32mx/lib/fpu64\libc-musl.a(__printf_core.o)
 .mdebug.abi32  0x0000000000000000        0x0 c:/program files/microchip/xc32/v4.35/bin/bin/../../lib/gcc/pic32mx/8.3.1/../../../../pic32mx/lib/fpu64\libc-musl.a(fflush.o)
 .mdebug.abi32  0x0000000000000000        0x0 c:/program files/microchip/xc32/v4.35/bin/bin/../../lib/gcc/pic32mx/8.3.1/../../../../pic32mx/lib/fpu64\libc-musl.a(stdin.o)
 .mdebug.abi32  0x0000000000000000        0x0 c:/program files/microchip/xc32/v4.35/bin/bin/../../lib/gcc/pic32mx/8.3.1/../../../../pic32mx/lib/fpu64\libc-musl.a(stdout.o)
 .mdebug.abi32  0x0000000000000000        0x0 c:/program files/microchip/xc32/v4.35/bin/bin/../../lib/gcc/pic32mx/8.3.1/../../../../pic32mx/lib/fpu64\libc-musl.a(puts.o)
 .mdebug.abi32  0x0000000000000000        0x0 c:/program files/microchip/xc32/v4.35/bin/bin/../../lib/gcc/pic32mx/8.3.1/../../../../pic32mx/lib/fpu64\libc-musl.a(setbuf.o)
 .mdebug.abi32  0x0000000000000000        0x0 c:/program files/microchip/xc32/v4.35/bin/bin/../../lib/gcc/pic32mx/8.3.1/../../../../pic32mx/lib/fpu64\libc-musl.a(atoi.o)
 .mdebug.abi32  0x0000000000000000        0x0 c:/program files/microchip/xc32/v4.35/bin/bin/../../lib/gcc/pic32mx/8.3.1/../../../../pic32mx/lib/fpu64\libc-musl.a(memcpy.o)
 .mdebug.abi32  0x0000000000000000        0x0 c:/program files/microchip/xc32/v4.35/bin/bin/../../lib/gcc/pic32mx/8.3.1/../../../../pic32mx/lib/fpu64\libc-musl.a(strlen.o)
 .mdebug.abi32  0x0000000000000000        0x0 c:/program files/microchip/xc32/v4.35/bin/bin/../../lib/gcc/pic32mx/8.3.1/../../../../pic32mx/lib/fpu64\libc-musl.a(tolower.o)
 .mdebug.abi32  0x0000000000000000        0x0 c:/program files/microchip/xc32/v4.35/bin/bin/../../lib/gcc/pic32mx/8.3.1/../../../../pic32mx/lib/fpu64\libc-musl.a(__int_vfprintf.o)
 .mdebug.abi32  0x0000000000000000        0x0 c:/program files/microchip/xc32/v4.35/bin/bin/../../lib/gcc/pic32mx/8.3.1/../../../../pic32mx/lib/fpu64\libc-musl.a(fputs.o)
 .mdebug.abi32  0x0000000000000000        0x0 c:/program files/microchip/xc32/v4.35/bin/bin/../../lib/gcc/pic32mx/8.3.1/../../../../pic32mx/lib/fpu64\libc-musl.a(__cvt_u.o)
 .mdebug.abi32  0x0000000000000000        0x0 c:/program files/microchip/xc32/v4.35/bin/bin/../../lib/gcc/pic32mx/8.3.1/../../../../pic32mx/lib/fpu64\libc-musl.a(__io_init_needed.o)
 .mdebug.abi32  0x0000000000000000        0x0 c:/program files/microchip/xc32/v4.35/bin/bin/../../lib/gcc/pic32mx/8.3.1/../../../../pic32mx/lib/fpu64\libc-musl.a(__io_rw_needed.o)
 .mdebug.abi32  0x0000000000000000        0x0 c:/program files/microchip/xc32/v4.35/bin/bin/../../lib/gcc/pic32mx/8.3.1/../../../../pic32mx/lib/fpu64\libc-musl.a(__out.o)
 .mdebug.abi32  0x0000000000000000        0x0 c:/program files/microchip/xc32/v4.35/bin/bin/../../lib/gcc/pic32mx/8.3.1/../../../../pic32mx/lib/fpu64\libc-musl.a(__pop_float.o)
 .mdebug.abi32  0x0000000000000000        0x0 c:/program files/microchip/xc32/v4.35/bin/bin/../../lib/gcc/pic32mx/8.3.1/../../../../pic32mx/lib/fpu64\libc-musl.a(__stdio_close.o)
 .mdebug.abi32  0x0000000000000000        0x0 c:/program files/microchip/xc32/v4.35/bin/bin/../../lib/gcc/pic32mx/8.3.1/../../../../pic32mx/lib/fpu64\libc-musl.a(__stdio_read.o)
 .mdebug.abi32  0x0000000000000000        0x0 c:/program files/microchip/xc32/v4.35/bin/bin/../../lib/gcc/pic32mx/8.3.1/../../../../pic32mx/lib/fpu64\libc-musl.a(__towrite_rw.o)
 .mdebug.abi32  0x0000000000000000        0x0 c:/program files/microchip/xc32/v4.35/bin/bin/../../lib/gcc/pic32mx/8.3.1/../../../../pic32mx/lib/fpu64\libc-musl.a(fwrite.o)
 .mdebug.abi32  0x0000000000000000        0x0 c:/program files/microchip/xc32/v4.35/bin/bin/../../lib/gcc/pic32mx/8.3.1/../../../../pic32mx/lib/fpu64\libc-musl.a(putc.o)
 .mdebug.abi32  0x0000000000000000        0x0 c:/program files/microchip/xc32/v4.35/bin/bin/../../lib/gcc/pic32mx/8.3.1/../../../../pic32mx/lib/fpu64\libc-musl.a(setvbuf.o)
 .mdebug.abi32  0x0000000000000000        0x0 c:/program files/microchip/xc32/v4.35/bin/bin/../../lib/gcc/pic32mx/8.3.1/../../../../pic32mx/lib/fpu64\libc-musl.a(readv.o)
 .mdebug.abi32  0x0000000000000000        0x0 c:/program files/microchip/xc32/v4.35/bin/bin/../../lib/gcc/pic32mx/8.3.1/../../../../pic32mx/lib/fpu64\libc-musl.a(malloc.o)
 .mdebug.abi32  0x0000000000000000        0x0 c:/program files/microchip/xc32/v4.35/bin/bin/../../lib/gcc/pic32mx/8.3.1/../../../../pic32mx/lib/fpu64\libc-musl.a(expand_heap.o)
 .mdebug.abi32  0x0000000000000000        0x0 c:/program files/microchip/xc32/v4.35/bin/bin/../../lib/gcc/pic32mx/8.3.1/../../../../pic32mx/lib/fpu64\libc-musl.a(__fopen_rw.o)
 .mdebug.abi32  0x0000000000000000        0x0 c:/program files/microchip/xc32/v4.35/bin/bin/../../lib/gcc/pic32mx/8.3.1/../../../../pic32mx/lib/fpu64\libc-musl.a(__ftello_rw.o)
 .mdebug.abi32  0x0000000000000000        0x0 c:/program files/microchip/xc32/v4.35/bin/bin/../../lib/gcc/pic32mx/8.3.1/../../../../pic32mx/lib/fpu64\libc-musl.a(__init_stdio.o)
 .mdebug.abi32  0x0000000000000000        0x0 c:/program files/microchip/xc32/v4.35/bin/bin/../../lib/gcc/pic32mx/8.3.1/../../../../pic32mx/lib/fpu64\libc-musl.a(__io_buf_needed.o)
 .mdebug.abi32  0x0000000000000000        0x0 c:/program files/microchip/xc32/v4.35/bin/bin/../../lib/gcc/pic32mx/8.3.1/../../../../pic32mx/lib/fpu64\libc-musl.a(__io_file_needed.o)
 .mdebug.abi32  0x0000000000000000        0x0 c:/program files/microchip/xc32/v4.35/bin/bin/../../lib/gcc/pic32mx/8.3.1/../../../../pic32mx/lib/fpu64\libc-musl.a(__io_std_needed.o)
 .mdebug.abi32  0x0000000000000000        0x0 c:/program files/microchip/xc32/v4.35/bin/bin/../../lib/gcc/pic32mx/8.3.1/../../../../pic32mx/lib/fpu64\libc-musl.a(__putc.o)
 .mdebug.abi32  0x0000000000000000        0x0 c:/program files/microchip/xc32/v4.35/bin/bin/../../lib/gcc/pic32mx/8.3.1/../../../../pic32mx/lib/fpu64\libc-musl.a(__stderr.o)
 .mdebug.abi32  0x0000000000000000        0x0 c:/program files/microchip/xc32/v4.35/bin/bin/../../lib/gcc/pic32mx/8.3.1/../../../../pic32mx/lib/fpu64\libc-musl.a(__stdio_exit.o)
 .mdebug.abi32  0x0000000000000000        0x0 c:/program files/microchip/xc32/v4.35/bin/bin/../../lib/gcc/pic32mx/8.3.1/../../../../pic32mx/lib/fpu64\libc-musl.a(__stdio_write.o)
 .mdebug.abi32  0x0000000000000000        0x0 c:/program files/microchip/xc32/v4.35/bin/bin/../../lib/gcc/pic32mx/8.3.1/../../../../pic32mx/lib/fpu64\libc-musl.a(__stdout.o)
 .mdebug.abi32  0x0000000000000000        0x0 c:/program files/microchip/xc32/v4.35/bin/bin/../../lib/gcc/pic32mx/8.3.1/../../../../pic32mx/lib/fpu64\libc-musl.a(__towrite.o)
 .mdebug.abi32  0x0000000000000000        0x0 c:/program files/microchip/xc32/v4.35/bin/bin/../../lib/gcc/pic32mx/8.3.1/../../../../pic32mx/lib/fpu64\libc-musl.a(writev.o)
 .mdebug.abi32  0x0000000000000000        0x0 c:/program files/microchip/xc32/v4.35/bin/bin/../../lib/gcc/pic32mx/8.3.1/../../../../pic32mx/lib/fpu64\libc-musl.a(libc.o)
 .mdebug.abi32  0x0000000000000000        0x0 c:/program files/microchip/xc32/v4.35/bin/bin/../../lib/gcc/pic32mx/8.3.1/../../../../pic32mx/lib/fpu64\libc-musl.a(__overflow.o)
 .mdebug.abi32  0x0000000000000000        0x0 c:/program files/microchip/xc32/v4.35/bin/bin/../../lib/gcc/pic32mx/8.3.1/../../../../pic32mx/lib/fpu64\libc-musl.a(__fclose.o)
 .mdebug.abi32  0x0000000000000000        0x0 c:/program files/microchip/xc32/v4.35/bin/bin/../../lib/gcc/pic32mx/8.3.1/../../../../pic32mx/lib/fpu64\libc-musl.a(__fopen.o)
 .mdebug.abi32  0x0000000000000000        0x0 c:/program files/microchip/xc32/v4.35/bin/bin/../../lib/gcc/pic32mx/8.3.1/../../../../pic32mx/lib/fpu64\libc-musl.a(__fseeko.o)
 .mdebug.abi32  0x0000000000000000        0x0 c:/program files/microchip/xc32/v4.35/bin/bin/../../lib/gcc/pic32mx/8.3.1/../../../../pic32mx/lib/fpu64\libc-musl.a(__ftello.o)
 .mdebug.abi32  0x0000000000000000        0x0 c:/program files/microchip/xc32/v4.35/bin/bin/../../lib/gcc/pic32mx/8.3.1/../../../../pic32mx/lib/fpu64\libc-musl.a(__fwrite.o)
 .mdebug.abi32  0x0000000000000000        0x0 c:/program files/microchip/xc32/v4.35/bin/bin/../../lib/gcc/pic32mx/8.3.1/fpu64\libgcc.a(_lshrdi3.o)
 .mdebug.abi32  0x0000000000000000        0x0 c:/program files/microchip/xc32/v4.35/bin/bin/../../lib/gcc/pic32mx/8.3.1/fpu64\libgcc.a(_ashldi3.o)
 .mdebug.abi32  0x0000000000000000        0x0 c:/program files/microchip/xc32/v4.35/bin/bin/../../lib/gcc/pic32mx/8.3.1/fpu64\libgcc.a(_udivdi3.o)
 .mdebug.abi32  0x0000000000000000        0x0 c:/program files/microchip/xc32/v4.35/bin/bin/../../lib/gcc/pic32mx/8.3.1/fpu64\libgcc.a(_umoddi3.o)
 .mdebug.abi32  0x0000000000000000        0x0 c:/program files/microchip/xc32/v4.35/bin/bin/../../lib/gcc/pic32mx/8.3.1/../../../../pic32mx/lib/fpu64\libpic32.a(sbrk.o)
 .mdebug.abi32  0x0000000000000000        0x0 c:/program files/microchip/xc32/v4.35/bin/bin/../../lib/gcc/pic32mx/8.3.1/../../../../pic32mx/lib/fpu64\libpic32.a(lseek.o)
 .mdebug.abi32  0x0000000000000000        0x0 c:/program files/microchip/xc32/v4.35/bin/bin/../../lib/gcc/pic32mx/8.3.1/../../../../pic32mx/lib/fpu64\libpic32.a(close.o)
 .mdebug.abi32  0x0000000000000000        0x0 c:/program files/microchip/xc32/v4.35/bin/bin/../../lib/gcc/pic32mx/8.3.1/../../../../pic32mx/lib/fpu64\libpic32.a(errno.o)

.mdebug.abiN32
 *(.mdebug.abiN32)

.mdebug.abi64
 *(.mdebug.abi64)

.mdebug.abiO64
 *(.mdebug.abiO64)

.mdebug.eabi32
 *(.mdebug.eabi32)

.mdebug.eabi64
 *(.mdebug.eabi64)

.gcc_compiled_long32
 *(.gcc_compiled_long32)

.gcc_compiled_long64
 *(.gcc_compiled_long64)

.stab
 *(.stab)

.stabstr
 *(.stabstr)

.stab.excl
 *(.stab.excl)

.stab.exclstr
 *(.stab.exclstr)

.stab.index
 *(.stab.index)

.stab.indexstr
 *(.stab.indexstr)

.comment        0x0000000000000000       0x8e
 *(.comment)
 .comment       0x0000000000000000       0x2b c:/program files/microchip/xc32/v4.35/bin/bin/../../lib/gcc/pic32mx/8.3.1/../../../../pic32mx/lib/fpu64\software-debug-break.o
                                         0x2c (size before relaxing)
 .comment       0x000000000000002b       0x2c build/Config_2/debug/_ext/1982400153/plib_adchs.o
 .comment       0x000000000000002b       0x2c build/Config_2/debug/_ext/1984168316/plib_canfd1.o
 .comment       0x000000000000002b       0x2c build/Config_2/debug/_ext/1984168316/plib_canfd3.o
 .comment       0x000000000000002b       0x2c build/Config_2/debug/_ext/1984168316/plib_canfd2.o
 .comment       0x000000000000002b       0x2c build/Config_2/debug/_ext/1984168316/plib_canfd4.o
 .comment       0x000000000000002b       0x2c build/Config_2/debug/_ext/60165520/plib_clk.o
 .comment       0x000000000000002b       0x2c build/Config_2/debug/_ext/1249264884/plib_coretimer.o
 .comment       0x000000000000002b       0x2c build/Config_2/debug/_ext/1865161661/plib_dmac.o
 .comment       0x000000000000002b       0x2c build/Config_2/debug/_ext/1865200349/plib_evic.o
 .comment       0x000000000000002b       0x2c build/Config_2/debug/_ext/1865254177/plib_gpio.o
 .comment       0x000000000000002b       0x2c build/Config_2/debug/_ext/60181895/plib_tmr2.o
 .comment       0x000000000000002b       0x2c build/Config_2/debug/_ext/60181895/plib_tmr4.o
 .comment       0x000000000000002b       0x2c build/Config_2/debug/_ext/60181895/plib_tmr3.o
 .comment       0x000000000000002b       0x2c build/Config_2/debug/_ext/60181895/plib_tmr6.o
 .comment       0x000000000000002b       0x2c build/Config_2/debug/_ext/60181895/plib_tmr5.o
 .comment       0x000000000000002b       0x2c build/Config_2/debug/_ext/1865638794/plib_tmr1.o
 .comment       0x000000000000002b       0x2c build/Config_2/debug/_ext/1865657120/plib_uart1.o
 .comment       0x000000000000002b       0x2c build/Config_2/debug/_ext/1865657120/plib_uart3.o
 .comment       0x000000000000002b       0x2c build/Config_2/debug/_ext/60184501/plib_wdt.o
 .comment       0x000000000000002b       0x2c build/Config_2/debug/_ext/163028504/xc32_monitor.o
 .comment       0x000000000000002b       0x2c build/Config_2/debug/_ext/1171490990/initialization.o
 .comment       0x000000000000002b       0x2c build/Config_2/debug/_ext/1171490990/interrupts.o
 .comment       0x000000000000002b       0x2c build/Config_2/debug/_ext/1171490990/exceptions.o
 .comment       0x000000000000002b       0x2c build/Config_2/debug/_ext/1360937237/main.o
 .comment       0x000000000000002b       0x2c build/Config_2/debug/APPS.o
 .comment       0x000000000000002b       0x2c build/Config_2/debug/CAN_utils.o
 .comment       0x000000000000002b       0x2c build/Config_2/debug/_ext/772537440/cansart.o
 .comment       0x000000000000002b       0x2c build/Config_2/debug/_ext/772537440/cansartP.o
 .comment       0x000000000000002b       0x2c build/Config_2/debug/TorqueControl.o
 .comment       0x000000000000002b       0x18 c:/program files/microchip/xc32/v4.35/bin/bin/../../lib/gcc/pic32mx/8.3.1/../../../../pic32mx/lib/fpu64\libpic32.a(memset.o)
                                         0x19 (size before relaxing)
 .comment       0x0000000000000043       0x2c c:/program files/microchip/xc32/v4.35/bin/bin/../../lib/gcc/pic32mx/8.3.1/../../../../pic32mx/lib/fpu64\libpic32.a(default-on-reset.o)
 .comment       0x0000000000000043       0x2c c:/program files/microchip/xc32/v4.35/bin/bin/../../lib/gcc/pic32mx/8.3.1/../../../../pic32mx/lib/fpu64\libpic32.a(default-on-bootstrap.o)
 .comment       0x0000000000000043       0x2c c:/program files/microchip/xc32/v4.35/bin/bin/../../lib/gcc/pic32mx/8.3.1/../../../../pic32mx/lib/fpu64\libpic32.a(defaultinterrupt.o)
 .comment       0x0000000000000043       0x2c c:/program files/microchip/xc32/v4.35/bin/bin/../../lib/gcc/pic32mx/8.3.1/../../../../pic32mx/lib/fpu64\libc-musl.a(__sio_printf_dn.o)
 .comment       0x0000000000000043       0x2c c:/program files/microchip/xc32/v4.35/bin/bin/../../lib/gcc/pic32mx/8.3.1/../../../../pic32mx/lib/fpu64\libc-musl.a(__fmt_d.o)
 .comment       0x0000000000000043       0x2c c:/program files/microchip/xc32/v4.35/bin/bin/../../lib/gcc/pic32mx/8.3.1/../../../../pic32mx/lib/fpu64\libc-musl.a(__pop_int.o)
 .comment       0x0000000000000043       0x2c c:/program files/microchip/xc32/v4.35/bin/bin/../../lib/gcc/pic32mx/8.3.1/../../../../pic32mx/lib/fpu64\libc-musl.a(__pop_ptr.o)
 .comment       0x0000000000000043       0x2c c:/program files/microchip/xc32/v4.35/bin/bin/../../lib/gcc/pic32mx/8.3.1/../../../../pic32mx/lib/fpu64\libc-musl.a(__printf_core.o)
 .comment       0x0000000000000043       0x2c c:/program files/microchip/xc32/v4.35/bin/bin/../../lib/gcc/pic32mx/8.3.1/../../../../pic32mx/lib/fpu64\libc-musl.a(fflush.o)
 .comment       0x0000000000000043       0x2c c:/program files/microchip/xc32/v4.35/bin/bin/../../lib/gcc/pic32mx/8.3.1/../../../../pic32mx/lib/fpu64\libc-musl.a(stdin.o)
 .comment       0x0000000000000043       0x2c c:/program files/microchip/xc32/v4.35/bin/bin/../../lib/gcc/pic32mx/8.3.1/../../../../pic32mx/lib/fpu64\libc-musl.a(stdout.o)
 .comment       0x0000000000000043       0x2c c:/program files/microchip/xc32/v4.35/bin/bin/../../lib/gcc/pic32mx/8.3.1/../../../../pic32mx/lib/fpu64\libc-musl.a(puts.o)
 .comment       0x0000000000000043       0x2c c:/program files/microchip/xc32/v4.35/bin/bin/../../lib/gcc/pic32mx/8.3.1/../../../../pic32mx/lib/fpu64\libc-musl.a(setbuf.o)
 .comment       0x0000000000000043       0x2c c:/program files/microchip/xc32/v4.35/bin/bin/../../lib/gcc/pic32mx/8.3.1/../../../../pic32mx/lib/fpu64\libc-musl.a(atoi.o)
 .comment       0x0000000000000043       0x2c c:/program files/microchip/xc32/v4.35/bin/bin/../../lib/gcc/pic32mx/8.3.1/../../../../pic32mx/lib/fpu64\libc-musl.a(memcpy.o)
 .comment       0x0000000000000043       0x2c c:/program files/microchip/xc32/v4.35/bin/bin/../../lib/gcc/pic32mx/8.3.1/../../../../pic32mx/lib/fpu64\libc-musl.a(strlen.o)
 .comment       0x0000000000000043       0x2c c:/program files/microchip/xc32/v4.35/bin/bin/../../lib/gcc/pic32mx/8.3.1/../../../../pic32mx/lib/fpu64\libc-musl.a(tolower.o)
 .comment       0x0000000000000043       0x2c c:/program files/microchip/xc32/v4.35/bin/bin/../../lib/gcc/pic32mx/8.3.1/../../../../pic32mx/lib/fpu64\libc-musl.a(__int_vfprintf.o)
 .comment       0x0000000000000043       0x2c c:/program files/microchip/xc32/v4.35/bin/bin/../../lib/gcc/pic32mx/8.3.1/../../../../pic32mx/lib/fpu64\libc-musl.a(fputs.o)
 .comment       0x0000000000000043       0x2c c:/program files/microchip/xc32/v4.35/bin/bin/../../lib/gcc/pic32mx/8.3.1/../../../../pic32mx/lib/fpu64\libc-musl.a(__cvt_u.o)
 .comment       0x0000000000000043       0x2c c:/program files/microchip/xc32/v4.35/bin/bin/../../lib/gcc/pic32mx/8.3.1/../../../../pic32mx/lib/fpu64\libc-musl.a(__io_init_needed.o)
 .comment       0x0000000000000043       0x2c c:/program files/microchip/xc32/v4.35/bin/bin/../../lib/gcc/pic32mx/8.3.1/../../../../pic32mx/lib/fpu64\libc-musl.a(__io_rw_needed.o)
 .comment       0x0000000000000043       0x2c c:/program files/microchip/xc32/v4.35/bin/bin/../../lib/gcc/pic32mx/8.3.1/../../../../pic32mx/lib/fpu64\libc-musl.a(__out.o)
 .comment       0x0000000000000043       0x2c c:/program files/microchip/xc32/v4.35/bin/bin/../../lib/gcc/pic32mx/8.3.1/../../../../pic32mx/lib/fpu64\libc-musl.a(__pop_float.o)
 .comment       0x0000000000000043       0x2c c:/program files/microchip/xc32/v4.35/bin/bin/../../lib/gcc/pic32mx/8.3.1/../../../../pic32mx/lib/fpu64\libc-musl.a(__stdio_close.o)
 .comment       0x0000000000000043       0x2c c:/program files/microchip/xc32/v4.35/bin/bin/../../lib/gcc/pic32mx/8.3.1/../../../../pic32mx/lib/fpu64\libc-musl.a(__stdio_read.o)
 .comment       0x0000000000000043       0x2c c:/program files/microchip/xc32/v4.35/bin/bin/../../lib/gcc/pic32mx/8.3.1/../../../../pic32mx/lib/fpu64\libc-musl.a(__towrite_rw.o)
 .comment       0x0000000000000043       0x2c c:/program files/microchip/xc32/v4.35/bin/bin/../../lib/gcc/pic32mx/8.3.1/../../../../pic32mx/lib/fpu64\libc-musl.a(fwrite.o)
 .comment       0x0000000000000043       0x2c c:/program files/microchip/xc32/v4.35/bin/bin/../../lib/gcc/pic32mx/8.3.1/../../../../pic32mx/lib/fpu64\libc-musl.a(putc.o)
 .comment       0x0000000000000043       0x2c c:/program files/microchip/xc32/v4.35/bin/bin/../../lib/gcc/pic32mx/8.3.1/../../../../pic32mx/lib/fpu64\libc-musl.a(setvbuf.o)
 .comment       0x0000000000000043       0x2c c:/program files/microchip/xc32/v4.35/bin/bin/../../lib/gcc/pic32mx/8.3.1/../../../../pic32mx/lib/fpu64\libc-musl.a(readv.o)
 .comment       0x0000000000000043       0x2c c:/program files/microchip/xc32/v4.35/bin/bin/../../lib/gcc/pic32mx/8.3.1/../../../../pic32mx/lib/fpu64\libc-musl.a(malloc.o)
 .comment       0x0000000000000043       0x2c c:/program files/microchip/xc32/v4.35/bin/bin/../../lib/gcc/pic32mx/8.3.1/../../../../pic32mx/lib/fpu64\libc-musl.a(expand_heap.o)
 .comment       0x0000000000000043       0x2c c:/program files/microchip/xc32/v4.35/bin/bin/../../lib/gcc/pic32mx/8.3.1/../../../../pic32mx/lib/fpu64\libc-musl.a(__fopen_rw.o)
 .comment       0x0000000000000043       0x2c c:/program files/microchip/xc32/v4.35/bin/bin/../../lib/gcc/pic32mx/8.3.1/../../../../pic32mx/lib/fpu64\libc-musl.a(__ftello_rw.o)
 .comment       0x0000000000000043       0x2c c:/program files/microchip/xc32/v4.35/bin/bin/../../lib/gcc/pic32mx/8.3.1/../../../../pic32mx/lib/fpu64\libc-musl.a(__init_stdio.o)
 .comment       0x0000000000000043       0x2c c:/program files/microchip/xc32/v4.35/bin/bin/../../lib/gcc/pic32mx/8.3.1/../../../../pic32mx/lib/fpu64\libc-musl.a(__io_buf_needed.o)
 .comment       0x0000000000000043       0x2c c:/program files/microchip/xc32/v4.35/bin/bin/../../lib/gcc/pic32mx/8.3.1/../../../../pic32mx/lib/fpu64\libc-musl.a(__io_file_needed.o)
 .comment       0x0000000000000043       0x2c c:/program files/microchip/xc32/v4.35/bin/bin/../../lib/gcc/pic32mx/8.3.1/../../../../pic32mx/lib/fpu64\libc-musl.a(__io_std_needed.o)
 .comment       0x0000000000000043       0x2c c:/program files/microchip/xc32/v4.35/bin/bin/../../lib/gcc/pic32mx/8.3.1/../../../../pic32mx/lib/fpu64\libc-musl.a(__putc.o)
 .comment       0x0000000000000043       0x2c c:/program files/microchip/xc32/v4.35/bin/bin/../../lib/gcc/pic32mx/8.3.1/../../../../pic32mx/lib/fpu64\libc-musl.a(__stderr.o)
 .comment       0x0000000000000043       0x2c c:/program files/microchip/xc32/v4.35/bin/bin/../../lib/gcc/pic32mx/8.3.1/../../../../pic32mx/lib/fpu64\libc-musl.a(__stdio_exit.o)
 .comment       0x0000000000000043       0x2c c:/program files/microchip/xc32/v4.35/bin/bin/../../lib/gcc/pic32mx/8.3.1/../../../../pic32mx/lib/fpu64\libc-musl.a(__stdio_write.o)
 .comment       0x0000000000000043       0x2c c:/program files/microchip/xc32/v4.35/bin/bin/../../lib/gcc/pic32mx/8.3.1/../../../../pic32mx/lib/fpu64\libc-musl.a(__stdout.o)
 .comment       0x0000000000000043       0x2c c:/program files/microchip/xc32/v4.35/bin/bin/../../lib/gcc/pic32mx/8.3.1/../../../../pic32mx/lib/fpu64\libc-musl.a(__towrite.o)
 .comment       0x0000000000000043       0x2c c:/program files/microchip/xc32/v4.35/bin/bin/../../lib/gcc/pic32mx/8.3.1/../../../../pic32mx/lib/fpu64\libc-musl.a(writev.o)
 .comment       0x0000000000000043       0x2c c:/program files/microchip/xc32/v4.35/bin/bin/../../lib/gcc/pic32mx/8.3.1/../../../../pic32mx/lib/fpu64\libc-musl.a(libc.o)
 .comment       0x0000000000000043       0x2c c:/program files/microchip/xc32/v4.35/bin/bin/../../lib/gcc/pic32mx/8.3.1/../../../../pic32mx/lib/fpu64\libc-musl.a(__overflow.o)
 .comment       0x0000000000000043       0x2c c:/program files/microchip/xc32/v4.35/bin/bin/../../lib/gcc/pic32mx/8.3.1/../../../../pic32mx/lib/fpu64\libc-musl.a(__fclose.o)
 .comment       0x0000000000000043       0x2c c:/program files/microchip/xc32/v4.35/bin/bin/../../lib/gcc/pic32mx/8.3.1/../../../../pic32mx/lib/fpu64\libc-musl.a(__fopen.o)
 .comment       0x0000000000000043       0x2c c:/program files/microchip/xc32/v4.35/bin/bin/../../lib/gcc/pic32mx/8.3.1/../../../../pic32mx/lib/fpu64\libc-musl.a(__fseeko.o)
 .comment       0x0000000000000043       0x2c c:/program files/microchip/xc32/v4.35/bin/bin/../../lib/gcc/pic32mx/8.3.1/../../../../pic32mx/lib/fpu64\libc-musl.a(__ftello.o)
 .comment       0x0000000000000043       0x2c c:/program files/microchip/xc32/v4.35/bin/bin/../../lib/gcc/pic32mx/8.3.1/../../../../pic32mx/lib/fpu64\libc-musl.a(__fwrite.o)
 .comment       0x0000000000000043       0x2c c:/program files/microchip/xc32/v4.35/bin/bin/../../lib/gcc/pic32mx/8.3.1/fpu64\libgcc.a(_lshrdi3.o)
 .comment       0x0000000000000043       0x2c c:/program files/microchip/xc32/v4.35/bin/bin/../../lib/gcc/pic32mx/8.3.1/fpu64\libgcc.a(_ashldi3.o)
 .comment       0x0000000000000043       0x2c c:/program files/microchip/xc32/v4.35/bin/bin/../../lib/gcc/pic32mx/8.3.1/fpu64\libgcc.a(_udivdi3.o)
 .comment       0x0000000000000043       0x2c c:/program files/microchip/xc32/v4.35/bin/bin/../../lib/gcc/pic32mx/8.3.1/fpu64\libgcc.a(_umoddi3.o)
 .comment       0x0000000000000043       0x4b c:/program files/microchip/xc32/v4.35/bin/bin/../../lib/gcc/pic32mx/8.3.1/../../../../pic32mx/lib/fpu64\libpic32.a(sbrk.o)
                                         0x77 (size before relaxing)
 .comment       0x000000000000008e       0x2c c:/program files/microchip/xc32/v4.35/bin/bin/../../lib/gcc/pic32mx/8.3.1/../../../../pic32mx/lib/fpu64\libpic32.a(lseek.o)
 .comment       0x000000000000008e       0x2c c:/program files/microchip/xc32/v4.35/bin/bin/../../lib/gcc/pic32mx/8.3.1/../../../../pic32mx/lib/fpu64\libpic32.a(close.o)
 .comment       0x000000000000008e       0x2c c:/program files/microchip/xc32/v4.35/bin/bin/../../lib/gcc/pic32mx/8.3.1/../../../../pic32mx/lib/fpu64\libpic32.a(errno.o)

.debug
 *.elf(.debug)
 *(.debug)

.line
 *.elf(.line)
 *(.line)

.debug_srcinfo
 *.elf(.debug_srcinfo)
 *(.debug_srcinfo)

.debug_sfnames
 *.elf(.debug_sfnames)
 *(.debug_sfnames)

.debug_aranges  0x0000000000000000     0x1560
 *.elf(.debug_aranges)
 *(.debug_aranges)
 .debug_aranges
                0x0000000000000000       0x20 c:/program files/microchip/xc32/v4.35/bin/bin/../../lib/gcc/pic32mx/8.3.1/../../../../pic32mx/lib/fpu64\software-debug-break.o
 .debug_aranges
                0x0000000000000020       0xb8 build/Config_2/debug/_ext/1982400153/plib_adchs.o
 .debug_aranges
                0x00000000000000d8       0x90 build/Config_2/debug/_ext/1984168316/plib_canfd1.o
 .debug_aranges
                0x0000000000000168       0x98 build/Config_2/debug/_ext/1984168316/plib_canfd3.o
 .debug_aranges
                0x0000000000000200       0x98 build/Config_2/debug/_ext/1984168316/plib_canfd2.o
 .debug_aranges
                0x0000000000000298       0x98 build/Config_2/debug/_ext/1984168316/plib_canfd4.o
 .debug_aranges
                0x0000000000000330       0x20 build/Config_2/debug/_ext/60165520/plib_clk.o
 .debug_aranges
                0x0000000000000350       0x60 build/Config_2/debug/_ext/1249264884/plib_coretimer.o
 .debug_aranges
                0x00000000000003b0       0x88 build/Config_2/debug/_ext/1865161661/plib_dmac.o
 .debug_aranges
                0x0000000000000438       0x68 build/Config_2/debug/_ext/1865200349/plib_evic.o
 .debug_aranges
                0x00000000000004a0       0x60 build/Config_2/debug/_ext/1865254177/plib_gpio.o
 .debug_aranges
                0x0000000000000500       0x70 build/Config_2/debug/_ext/60181895/plib_tmr2.o
 .debug_aranges
                0x0000000000000570       0x70 build/Config_2/debug/_ext/60181895/plib_tmr4.o
 .debug_aranges
                0x00000000000005e0       0x70 build/Config_2/debug/_ext/60181895/plib_tmr3.o
 .debug_aranges
                0x0000000000000650       0x70 build/Config_2/debug/_ext/60181895/plib_tmr6.o
 .debug_aranges
                0x00000000000006c0       0x70 build/Config_2/debug/_ext/60181895/plib_tmr5.o
 .debug_aranges
                0x0000000000000730       0x70 build/Config_2/debug/_ext/1865638794/plib_tmr1.o
 .debug_aranges
                0x00000000000007a0       0x80 build/Config_2/debug/_ext/1865657120/plib_uart1.o
 .debug_aranges
                0x0000000000000820       0x80 build/Config_2/debug/_ext/1865657120/plib_uart3.o
 .debug_aranges
                0x00000000000008a0       0x50 build/Config_2/debug/_ext/60184501/plib_wdt.o
 .debug_aranges
                0x00000000000008f0       0x28 build/Config_2/debug/_ext/163028504/xc32_monitor.o
 .debug_aranges
                0x0000000000000918       0x20 build/Config_2/debug/_ext/1171490990/initialization.o
 .debug_aranges
                0x0000000000000938       0x70 build/Config_2/debug/_ext/1171490990/interrupts.o
 .debug_aranges
                0x00000000000009a8       0x20 build/Config_2/debug/_ext/1171490990/exceptions.o
 .debug_aranges
                0x00000000000009c8       0xb0 build/Config_2/debug/_ext/1360937237/main.o
 .debug_aranges
                0x0000000000000a78       0x48 build/Config_2/debug/APPS.o
 .debug_aranges
                0x0000000000000ac0       0xc8 build/Config_2/debug/CAN_utils.o
 .debug_aranges
                0x0000000000000b88       0x50 build/Config_2/debug/_ext/772537440/cansart.o
 .debug_aranges
                0x0000000000000bd8       0x28 build/Config_2/debug/_ext/772537440/cansartP.o
 .debug_aranges
                0x0000000000000c00       0x30 build/Config_2/debug/TorqueControl.o
 .debug_aranges
                0x0000000000000c30       0x40 C:\Users\pedro\AppData\Local\Temp\ccPLik8y.o
 .debug_aranges
                0x0000000000000c70       0x20 c:/program files/microchip/xc32/v4.35/bin/bin/../../lib/gcc/pic32mx/8.3.1/../../../../pic32mx/lib/fpu64\libpic32.a(default-on-reset.o)
 .debug_aranges
                0x0000000000000c90       0x20 c:/program files/microchip/xc32/v4.35/bin/bin/../../lib/gcc/pic32mx/8.3.1/../../../../pic32mx/lib/fpu64\libpic32.a(default-on-bootstrap.o)
 .debug_aranges
                0x0000000000000cb0       0x20 c:/program files/microchip/xc32/v4.35/bin/bin/../../lib/gcc/pic32mx/8.3.1/../../../../pic32mx/lib/fpu64\libpic32.a(defaultinterrupt.o)
 .debug_aranges
                0x0000000000000cd0       0x28 c:/program files/microchip/xc32/v4.35/bin/bin/../../lib/gcc/pic32mx/8.3.1/../../../../pic32mx/lib/fpu64\libc-musl.a(__sio_printf_dn.o)
 .debug_aranges
                0x0000000000000cf8       0x20 c:/program files/microchip/xc32/v4.35/bin/bin/../../lib/gcc/pic32mx/8.3.1/../../../../pic32mx/lib/fpu64\libc-musl.a(__fmt_d.o)
 .debug_aranges
                0x0000000000000d18       0x20 c:/program files/microchip/xc32/v4.35/bin/bin/../../lib/gcc/pic32mx/8.3.1/../../../../pic32mx/lib/fpu64\libc-musl.a(__pop_int.o)
 .debug_aranges
                0x0000000000000d38       0x20 c:/program files/microchip/xc32/v4.35/bin/bin/../../lib/gcc/pic32mx/8.3.1/../../../../pic32mx/lib/fpu64\libc-musl.a(__pop_ptr.o)
 .debug_aranges
                0x0000000000000d58       0x50 c:/program files/microchip/xc32/v4.35/bin/bin/../../lib/gcc/pic32mx/8.3.1/../../../../pic32mx/lib/fpu64\libc-musl.a(__printf_core.o)
 .debug_aranges
                0x0000000000000da8       0x30 c:/program files/microchip/xc32/v4.35/bin/bin/../../lib/gcc/pic32mx/8.3.1/../../../../pic32mx/lib/fpu64\libc-musl.a(fflush.o)
 .debug_aranges
                0x0000000000000dd8       0x28 c:/program files/microchip/xc32/v4.35/bin/bin/../../lib/gcc/pic32mx/8.3.1/../../../../pic32mx/lib/fpu64\libc-musl.a(stdin.o)
 .debug_aranges
                0x0000000000000e00       0x30 c:/program files/microchip/xc32/v4.35/bin/bin/../../lib/gcc/pic32mx/8.3.1/../../../../pic32mx/lib/fpu64\libc-musl.a(stdout.o)
 .debug_aranges
                0x0000000000000e30       0x20 c:/program files/microchip/xc32/v4.35/bin/bin/../../lib/gcc/pic32mx/8.3.1/../../../../pic32mx/lib/fpu64\libc-musl.a(puts.o)
 .debug_aranges
                0x0000000000000e50       0x20 c:/program files/microchip/xc32/v4.35/bin/bin/../../lib/gcc/pic32mx/8.3.1/../../../../pic32mx/lib/fpu64\libc-musl.a(setbuf.o)
 .debug_aranges
                0x0000000000000e70       0x20 c:/program files/microchip/xc32/v4.35/bin/bin/../../lib/gcc/pic32mx/8.3.1/../../../../pic32mx/lib/fpu64\libc-musl.a(atoi.o)
 .debug_aranges
                0x0000000000000e90       0x20 c:/program files/microchip/xc32/v4.35/bin/bin/../../lib/gcc/pic32mx/8.3.1/../../../../pic32mx/lib/fpu64\libc-musl.a(memcpy.o)
 .debug_aranges
                0x0000000000000eb0       0x20 c:/program files/microchip/xc32/v4.35/bin/bin/../../lib/gcc/pic32mx/8.3.1/../../../../pic32mx/lib/fpu64\libc-musl.a(strlen.o)
 .debug_aranges
                0x0000000000000ed0       0x28 c:/program files/microchip/xc32/v4.35/bin/bin/../../lib/gcc/pic32mx/8.3.1/../../../../pic32mx/lib/fpu64\libc-musl.a(tolower.o)
 .debug_aranges
                0x0000000000000ef8       0x20 c:/program files/microchip/xc32/v4.35/bin/bin/../../lib/gcc/pic32mx/8.3.1/../../../../pic32mx/lib/fpu64\libc-musl.a(__int_vfprintf.o)
 .debug_aranges
                0x0000000000000f18       0x20 c:/program files/microchip/xc32/v4.35/bin/bin/../../lib/gcc/pic32mx/8.3.1/../../../../pic32mx/lib/fpu64\libc-musl.a(fputs.o)
 .debug_aranges
                0x0000000000000f38       0x20 c:/program files/microchip/xc32/v4.35/bin/bin/../../lib/gcc/pic32mx/8.3.1/../../../../pic32mx/lib/fpu64\libc-musl.a(__cvt_u.o)
 .debug_aranges
                0x0000000000000f58       0x28 c:/program files/microchip/xc32/v4.35/bin/bin/../../lib/gcc/pic32mx/8.3.1/../../../../pic32mx/lib/fpu64\libc-musl.a(__io_init_needed.o)
 .debug_aranges
                0x0000000000000f80       0x20 c:/program files/microchip/xc32/v4.35/bin/bin/../../lib/gcc/pic32mx/8.3.1/../../../../pic32mx/lib/fpu64\libc-musl.a(__io_rw_needed.o)
 .debug_aranges
                0x0000000000000fa0       0x28 c:/program files/microchip/xc32/v4.35/bin/bin/../../lib/gcc/pic32mx/8.3.1/../../../../pic32mx/lib/fpu64\libc-musl.a(__out.o)
 .debug_aranges
                0x0000000000000fc8       0x20 c:/program files/microchip/xc32/v4.35/bin/bin/../../lib/gcc/pic32mx/8.3.1/../../../../pic32mx/lib/fpu64\libc-musl.a(__pop_float.o)
 .debug_aranges
                0x0000000000000fe8       0x28 c:/program files/microchip/xc32/v4.35/bin/bin/../../lib/gcc/pic32mx/8.3.1/../../../../pic32mx/lib/fpu64\libc-musl.a(__stdio_close.o)
 .debug_aranges
                0x0000000000001010       0x20 c:/program files/microchip/xc32/v4.35/bin/bin/../../lib/gcc/pic32mx/8.3.1/../../../../pic32mx/lib/fpu64\libc-musl.a(__stdio_read.o)
 .debug_aranges
                0x0000000000001030       0x20 c:/program files/microchip/xc32/v4.35/bin/bin/../../lib/gcc/pic32mx/8.3.1/../../../../pic32mx/lib/fpu64\libc-musl.a(__towrite_rw.o)
 .debug_aranges
                0x0000000000001050       0x28 c:/program files/microchip/xc32/v4.35/bin/bin/../../lib/gcc/pic32mx/8.3.1/../../../../pic32mx/lib/fpu64\libc-musl.a(fwrite.o)
 .debug_aranges
                0x0000000000001078       0x30 c:/program files/microchip/xc32/v4.35/bin/bin/../../lib/gcc/pic32mx/8.3.1/../../../../pic32mx/lib/fpu64\libc-musl.a(putc.o)
 .debug_aranges
                0x00000000000010a8       0x28 c:/program files/microchip/xc32/v4.35/bin/bin/../../lib/gcc/pic32mx/8.3.1/../../../../pic32mx/lib/fpu64\libc-musl.a(setvbuf.o)
 .debug_aranges
                0x00000000000010d0       0x20 c:/program files/microchip/xc32/v4.35/bin/bin/../../lib/gcc/pic32mx/8.3.1/../../../../pic32mx/lib/fpu64\libc-musl.a(readv.o)
 .debug_aranges
                0x00000000000010f0       0x70 c:/program files/microchip/xc32/v4.35/bin/bin/../../lib/gcc/pic32mx/8.3.1/../../../../pic32mx/lib/fpu64\libc-musl.a(malloc.o)
 .debug_aranges
                0x0000000000001160       0x20 c:/program files/microchip/xc32/v4.35/bin/bin/../../lib/gcc/pic32mx/8.3.1/../../../../pic32mx/lib/fpu64\libc-musl.a(expand_heap.o)
 .debug_aranges
                0x0000000000001180       0x20 c:/program files/microchip/xc32/v4.35/bin/bin/../../lib/gcc/pic32mx/8.3.1/../../../../pic32mx/lib/fpu64\libc-musl.a(__fopen_rw.o)
 .debug_aranges
                0x00000000000011a0       0x20 c:/program files/microchip/xc32/v4.35/bin/bin/../../lib/gcc/pic32mx/8.3.1/../../../../pic32mx/lib/fpu64\libc-musl.a(__ftello_rw.o)
 .debug_aranges
                0x00000000000011c0       0x28 c:/program files/microchip/xc32/v4.35/bin/bin/../../lib/gcc/pic32mx/8.3.1/../../../../pic32mx/lib/fpu64\libc-musl.a(__init_stdio.o)
 .debug_aranges
                0x00000000000011e8       0x20 c:/program files/microchip/xc32/v4.35/bin/bin/../../lib/gcc/pic32mx/8.3.1/../../../../pic32mx/lib/fpu64\libc-musl.a(__io_buf_needed.o)
 .debug_aranges
                0x0000000000001208       0x20 c:/program files/microchip/xc32/v4.35/bin/bin/../../lib/gcc/pic32mx/8.3.1/../../../../pic32mx/lib/fpu64\libc-musl.a(__io_file_needed.o)
 .debug_aranges
                0x0000000000001228       0x20 c:/program files/microchip/xc32/v4.35/bin/bin/../../lib/gcc/pic32mx/8.3.1/../../../../pic32mx/lib/fpu64\libc-musl.a(__io_std_needed.o)
 .debug_aranges
                0x0000000000001248       0x20 c:/program files/microchip/xc32/v4.35/bin/bin/../../lib/gcc/pic32mx/8.3.1/../../../../pic32mx/lib/fpu64\libc-musl.a(__putc.o)
 .debug_aranges
                0x0000000000001268       0x30 c:/program files/microchip/xc32/v4.35/bin/bin/../../lib/gcc/pic32mx/8.3.1/../../../../pic32mx/lib/fpu64\libc-musl.a(__stderr.o)
 .debug_aranges
                0x0000000000001298       0x30 c:/program files/microchip/xc32/v4.35/bin/bin/../../lib/gcc/pic32mx/8.3.1/../../../../pic32mx/lib/fpu64\libc-musl.a(__stdio_exit.o)
 .debug_aranges
                0x00000000000012c8       0x28 c:/program files/microchip/xc32/v4.35/bin/bin/../../lib/gcc/pic32mx/8.3.1/../../../../pic32mx/lib/fpu64\libc-musl.a(__stdio_write.o)
 .debug_aranges
                0x00000000000012f0       0x30 c:/program files/microchip/xc32/v4.35/bin/bin/../../lib/gcc/pic32mx/8.3.1/../../../../pic32mx/lib/fpu64\libc-musl.a(__stdout.o)
 .debug_aranges
                0x0000000000001320       0x28 c:/program files/microchip/xc32/v4.35/bin/bin/../../lib/gcc/pic32mx/8.3.1/../../../../pic32mx/lib/fpu64\libc-musl.a(__towrite.o)
 .debug_aranges
                0x0000000000001348       0x20 c:/program files/microchip/xc32/v4.35/bin/bin/../../lib/gcc/pic32mx/8.3.1/../../../../pic32mx/lib/fpu64\libc-musl.a(writev.o)
 .debug_aranges
                0x0000000000001368       0x18 c:/program files/microchip/xc32/v4.35/bin/bin/../../lib/gcc/pic32mx/8.3.1/../../../../pic32mx/lib/fpu64\libc-musl.a(libc.o)
 .debug_aranges
                0x0000000000001380       0x20 c:/program files/microchip/xc32/v4.35/bin/bin/../../lib/gcc/pic32mx/8.3.1/../../../../pic32mx/lib/fpu64\libc-musl.a(__overflow.o)
 .debug_aranges
                0x00000000000013a0       0x20 c:/program files/microchip/xc32/v4.35/bin/bin/../../lib/gcc/pic32mx/8.3.1/../../../../pic32mx/lib/fpu64\libc-musl.a(__fclose.o)
 .debug_aranges
                0x00000000000013c0       0x30 c:/program files/microchip/xc32/v4.35/bin/bin/../../lib/gcc/pic32mx/8.3.1/../../../../pic32mx/lib/fpu64\libc-musl.a(__fopen.o)
 .debug_aranges
                0x00000000000013f0       0x20 c:/program files/microchip/xc32/v4.35/bin/bin/../../lib/gcc/pic32mx/8.3.1/../../../../pic32mx/lib/fpu64\libc-musl.a(__fseeko.o)
 .debug_aranges
                0x0000000000001410       0x28 c:/program files/microchip/xc32/v4.35/bin/bin/../../lib/gcc/pic32mx/8.3.1/../../../../pic32mx/lib/fpu64\libc-musl.a(__ftello.o)
 .debug_aranges
                0x0000000000001438       0x28 c:/program files/microchip/xc32/v4.35/bin/bin/../../lib/gcc/pic32mx/8.3.1/../../../../pic32mx/lib/fpu64\libc-musl.a(__fwrite.o)
 .debug_aranges
                0x0000000000001460       0x20 c:/program files/microchip/xc32/v4.35/bin/bin/../../lib/gcc/pic32mx/8.3.1/fpu64\libgcc.a(_lshrdi3.o)
 .debug_aranges
                0x0000000000001480       0x20 c:/program files/microchip/xc32/v4.35/bin/bin/../../lib/gcc/pic32mx/8.3.1/fpu64\libgcc.a(_ashldi3.o)
 .debug_aranges
                0x00000000000014a0       0x20 c:/program files/microchip/xc32/v4.35/bin/bin/../../lib/gcc/pic32mx/8.3.1/fpu64\libgcc.a(_udivdi3.o)
 .debug_aranges
                0x00000000000014c0       0x20 c:/program files/microchip/xc32/v4.35/bin/bin/../../lib/gcc/pic32mx/8.3.1/fpu64\libgcc.a(_umoddi3.o)
 .debug_aranges
                0x00000000000014e0       0x40 c:/program files/microchip/xc32/v4.35/bin/bin/../../lib/gcc/pic32mx/8.3.1/../../../../pic32mx/lib/fpu64\libpic32.a(sbrk.o)
 .debug_aranges
                0x0000000000001520       0x20 c:/program files/microchip/xc32/v4.35/bin/bin/../../lib/gcc/pic32mx/8.3.1/../../../../pic32mx/lib/fpu64\libpic32.a(lseek.o)
 .debug_aranges
                0x0000000000001540       0x20 c:/program files/microchip/xc32/v4.35/bin/bin/../../lib/gcc/pic32mx/8.3.1/../../../../pic32mx/lib/fpu64\libpic32.a(close.o)

.debug_pubnames
 *.elf(.debug_pubnames)
 *(.debug_pubnames)

.debug_info     0x0000000000000000    0x16b97
 *.elf(.debug_info .gnu.linkonce.wi.*)
 *(.debug_info .gnu.linkonce.wi.*)
 .debug_info    0x0000000000000000       0x3f c:/program files/microchip/xc32/v4.35/bin/bin/../../lib/gcc/pic32mx/8.3.1/../../../../pic32mx/lib/fpu64\software-debug-break.o
 .debug_info    0x000000000000003f      0xd0e build/Config_2/debug/_ext/1982400153/plib_adchs.o
 .debug_info    0x0000000000000d4d      0xb80 build/Config_2/debug/_ext/1984168316/plib_canfd1.o
 .debug_info    0x00000000000018cd      0xc99 build/Config_2/debug/_ext/1984168316/plib_canfd3.o
 .debug_info    0x0000000000002566      0xc99 build/Config_2/debug/_ext/1984168316/plib_canfd2.o
 .debug_info    0x00000000000031ff      0xc99 build/Config_2/debug/_ext/1984168316/plib_canfd4.o
 .debug_info    0x0000000000003e98      0x27c build/Config_2/debug/_ext/60165520/plib_clk.o
 .debug_info    0x0000000000004114      0x4f3 build/Config_2/debug/_ext/1249264884/plib_coretimer.o
 .debug_info    0x0000000000004607      0xc70 build/Config_2/debug/_ext/1865161661/plib_dmac.o
 .debug_info    0x0000000000005277      0x3e3 build/Config_2/debug/_ext/1865200349/plib_evic.o
 .debug_info    0x000000000000565a      0x621 build/Config_2/debug/_ext/1865254177/plib_gpio.o
 .debug_info    0x0000000000005c7b      0x582 build/Config_2/debug/_ext/60181895/plib_tmr2.o
 .debug_info    0x00000000000061fd      0x575 build/Config_2/debug/_ext/60181895/plib_tmr4.o
 .debug_info    0x0000000000006772      0x582 build/Config_2/debug/_ext/60181895/plib_tmr3.o
 .debug_info    0x0000000000006cf4      0x588 build/Config_2/debug/_ext/60181895/plib_tmr6.o
 .debug_info    0x000000000000727c      0x575 build/Config_2/debug/_ext/60181895/plib_tmr5.o
 .debug_info    0x00000000000077f1      0x5a2 build/Config_2/debug/_ext/1865638794/plib_tmr1.o
 .debug_info    0x0000000000007d93      0x59c build/Config_2/debug/_ext/1865657120/plib_uart1.o
 .debug_info    0x000000000000832f      0x59c build/Config_2/debug/_ext/1865657120/plib_uart3.o
 .debug_info    0x00000000000088cb      0x206 build/Config_2/debug/_ext/60184501/plib_wdt.o
 .debug_info    0x0000000000008ad1      0x1d5 build/Config_2/debug/_ext/163028504/xc32_monitor.o
 .debug_info    0x0000000000008ca6      0x441 build/Config_2/debug/_ext/1171490990/initialization.o
 .debug_info    0x00000000000090e7      0x2c4 build/Config_2/debug/_ext/1171490990/interrupts.o
 .debug_info    0x00000000000093ab       0xdb build/Config_2/debug/_ext/1171490990/exceptions.o
 .debug_info    0x0000000000009486     0x1735 build/Config_2/debug/_ext/1360937237/main.o
 .debug_info    0x000000000000abbb      0x9bf build/Config_2/debug/APPS.o
 .debug_info    0x000000000000b57a     0x113a build/Config_2/debug/CAN_utils.o
 .debug_info    0x000000000000c6b4      0x575 build/Config_2/debug/_ext/772537440/cansart.o
 .debug_info    0x000000000000cc29      0x330 build/Config_2/debug/_ext/772537440/cansartP.o
 .debug_info    0x000000000000cf59      0x1dc build/Config_2/debug/TorqueControl.o
 .debug_info    0x000000000000d135       0x22 C:\Users\pedro\AppData\Local\Temp\ccPLik8y.o
 .debug_info    0x000000000000d157       0x3f c:/program files/microchip/xc32/v4.35/bin/bin/../../lib/gcc/pic32mx/8.3.1/../../../../pic32mx/lib/fpu64\libpic32.a(default-on-reset.o)
 .debug_info    0x000000000000d196       0x3f c:/program files/microchip/xc32/v4.35/bin/bin/../../lib/gcc/pic32mx/8.3.1/../../../../pic32mx/lib/fpu64\libpic32.a(default-on-bootstrap.o)
 .debug_info    0x000000000000d1d5       0x40 c:/program files/microchip/xc32/v4.35/bin/bin/../../lib/gcc/pic32mx/8.3.1/../../../../pic32mx/lib/fpu64\libpic32.a(defaultinterrupt.o)
 .debug_info    0x000000000000d215      0x19e c:/program files/microchip/xc32/v4.35/bin/bin/../../lib/gcc/pic32mx/8.3.1/../../../../pic32mx/lib/fpu64\libc-musl.a(__sio_printf_dn.o)
 .debug_info    0x000000000000d3b3      0x327 c:/program files/microchip/xc32/v4.35/bin/bin/../../lib/gcc/pic32mx/8.3.1/../../../../pic32mx/lib/fpu64\libc-musl.a(__fmt_d.o)
 .debug_info    0x000000000000d6da      0x14e c:/program files/microchip/xc32/v4.35/bin/bin/../../lib/gcc/pic32mx/8.3.1/../../../../pic32mx/lib/fpu64\libc-musl.a(__pop_int.o)
 .debug_info    0x000000000000d828      0x15e c:/program files/microchip/xc32/v4.35/bin/bin/../../lib/gcc/pic32mx/8.3.1/../../../../pic32mx/lib/fpu64\libc-musl.a(__pop_ptr.o)
 .debug_info    0x000000000000d986      0xa27 c:/program files/microchip/xc32/v4.35/bin/bin/../../lib/gcc/pic32mx/8.3.1/../../../../pic32mx/lib/fpu64\libc-musl.a(__printf_core.o)
 .debug_info    0x000000000000e3ad      0x2cd c:/program files/microchip/xc32/v4.35/bin/bin/../../lib/gcc/pic32mx/8.3.1/../../../../pic32mx/lib/fpu64\libc-musl.a(fflush.o)
 .debug_info    0x000000000000e67a      0x3f4 c:/program files/microchip/xc32/v4.35/bin/bin/../../lib/gcc/pic32mx/8.3.1/../../../../pic32mx/lib/fpu64\libc-musl.a(stdin.o)
 .debug_info    0x000000000000ea6e      0x40c c:/program files/microchip/xc32/v4.35/bin/bin/../../lib/gcc/pic32mx/8.3.1/../../../../pic32mx/lib/fpu64\libc-musl.a(stdout.o)
 .debug_info    0x000000000000ee7a      0x3a3 c:/program files/microchip/xc32/v4.35/bin/bin/../../lib/gcc/pic32mx/8.3.1/../../../../pic32mx/lib/fpu64\libc-musl.a(puts.o)
 .debug_info    0x000000000000f21d       0xe4 c:/program files/microchip/xc32/v4.35/bin/bin/../../lib/gcc/pic32mx/8.3.1/../../../../pic32mx/lib/fpu64\libc-musl.a(setbuf.o)
 .debug_info    0x000000000000f301       0xee c:/program files/microchip/xc32/v4.35/bin/bin/../../lib/gcc/pic32mx/8.3.1/../../../../pic32mx/lib/fpu64\libc-musl.a(atoi.o)
 .debug_info    0x000000000000f3ef       0xf7 c:/program files/microchip/xc32/v4.35/bin/bin/../../lib/gcc/pic32mx/8.3.1/../../../../pic32mx/lib/fpu64\libc-musl.a(memcpy.o)
 .debug_info    0x000000000000f4e6       0xa3 c:/program files/microchip/xc32/v4.35/bin/bin/../../lib/gcc/pic32mx/8.3.1/../../../../pic32mx/lib/fpu64\libc-musl.a(strlen.o)
 .debug_info    0x000000000000f589      0x11b c:/program files/microchip/xc32/v4.35/bin/bin/../../lib/gcc/pic32mx/8.3.1/../../../../pic32mx/lib/fpu64\libc-musl.a(tolower.o)
 .debug_info    0x000000000000f6a4      0x1e0 c:/program files/microchip/xc32/v4.35/bin/bin/../../lib/gcc/pic32mx/8.3.1/../../../../pic32mx/lib/fpu64\libc-musl.a(__int_vfprintf.o)
 .debug_info    0x000000000000f884      0x3ad c:/program files/microchip/xc32/v4.35/bin/bin/../../lib/gcc/pic32mx/8.3.1/../../../../pic32mx/lib/fpu64\libc-musl.a(fputs.o)
 .debug_info    0x000000000000fc31      0x1d0 c:/program files/microchip/xc32/v4.35/bin/bin/../../lib/gcc/pic32mx/8.3.1/../../../../pic32mx/lib/fpu64\libc-musl.a(__cvt_u.o)
 .debug_info    0x000000000000fe01       0xdf c:/program files/microchip/xc32/v4.35/bin/bin/../../lib/gcc/pic32mx/8.3.1/../../../../pic32mx/lib/fpu64\libc-musl.a(__io_init_needed.o)
 .debug_info    0x000000000000fee0       0xf4 c:/program files/microchip/xc32/v4.35/bin/bin/../../lib/gcc/pic32mx/8.3.1/../../../../pic32mx/lib/fpu64\libc-musl.a(__io_rw_needed.o)
 .debug_info    0x000000000000ffd4      0x29f c:/program files/microchip/xc32/v4.35/bin/bin/../../lib/gcc/pic32mx/8.3.1/../../../../pic32mx/lib/fpu64\libc-musl.a(__out.o)
 .debug_info    0x0000000000010273      0x134 c:/program files/microchip/xc32/v4.35/bin/bin/../../lib/gcc/pic32mx/8.3.1/../../../../pic32mx/lib/fpu64\libc-musl.a(__pop_float.o)
 .debug_info    0x00000000000103a7      0x3f6 c:/program files/microchip/xc32/v4.35/bin/bin/../../lib/gcc/pic32mx/8.3.1/../../../../pic32mx/lib/fpu64\libc-musl.a(__stdio_close.o)
 .debug_info    0x000000000001079d      0x3e6 c:/program files/microchip/xc32/v4.35/bin/bin/../../lib/gcc/pic32mx/8.3.1/../../../../pic32mx/lib/fpu64\libc-musl.a(__stdio_read.o)
 .debug_info    0x0000000000010b83      0x323 c:/program files/microchip/xc32/v4.35/bin/bin/../../lib/gcc/pic32mx/8.3.1/../../../../pic32mx/lib/fpu64\libc-musl.a(__towrite_rw.o)
 .debug_info    0x0000000000010ea6      0x24c c:/program files/microchip/xc32/v4.35/bin/bin/../../lib/gcc/pic32mx/8.3.1/../../../../pic32mx/lib/fpu64\libc-musl.a(fwrite.o)
 .debug_info    0x00000000000110f2      0x217 c:/program files/microchip/xc32/v4.35/bin/bin/../../lib/gcc/pic32mx/8.3.1/../../../../pic32mx/lib/fpu64\libc-musl.a(putc.o)
 .debug_info    0x0000000000011309      0x2b2 c:/program files/microchip/xc32/v4.35/bin/bin/../../lib/gcc/pic32mx/8.3.1/../../../../pic32mx/lib/fpu64\libc-musl.a(setvbuf.o)
 .debug_info    0x00000000000115bb      0x144 c:/program files/microchip/xc32/v4.35/bin/bin/../../lib/gcc/pic32mx/8.3.1/../../../../pic32mx/lib/fpu64\libc-musl.a(readv.o)
 .debug_info    0x00000000000116ff      0xfed c:/program files/microchip/xc32/v4.35/bin/bin/../../lib/gcc/pic32mx/8.3.1/../../../../pic32mx/lib/fpu64\libc-musl.a(malloc.o)
 .debug_info    0x00000000000126ec      0x105 c:/program files/microchip/xc32/v4.35/bin/bin/../../lib/gcc/pic32mx/8.3.1/../../../../pic32mx/lib/fpu64\libc-musl.a(expand_heap.o)
 .debug_info    0x00000000000127f1      0x3d3 c:/program files/microchip/xc32/v4.35/bin/bin/../../lib/gcc/pic32mx/8.3.1/../../../../pic32mx/lib/fpu64\libc-musl.a(__fopen_rw.o)
 .debug_info    0x0000000000012bc4      0x341 c:/program files/microchip/xc32/v4.35/bin/bin/../../lib/gcc/pic32mx/8.3.1/../../../../pic32mx/lib/fpu64\libc-musl.a(__ftello_rw.o)
 .debug_info    0x0000000000012f05       0xb9 c:/program files/microchip/xc32/v4.35/bin/bin/../../lib/gcc/pic32mx/8.3.1/../../../../pic32mx/lib/fpu64\libc-musl.a(__init_stdio.o)
 .debug_info    0x0000000000012fbe      0x139 c:/program files/microchip/xc32/v4.35/bin/bin/../../lib/gcc/pic32mx/8.3.1/../../../../pic32mx/lib/fpu64\libc-musl.a(__io_buf_needed.o)
 .debug_info    0x00000000000130f7       0xaf c:/program files/microchip/xc32/v4.35/bin/bin/../../lib/gcc/pic32mx/8.3.1/../../../../pic32mx/lib/fpu64\libc-musl.a(__io_file_needed.o)
 .debug_info    0x00000000000131a6      0x122 c:/program files/microchip/xc32/v4.35/bin/bin/../../lib/gcc/pic32mx/8.3.1/../../../../pic32mx/lib/fpu64\libc-musl.a(__io_std_needed.o)
 .debug_info    0x00000000000132c8      0x284 c:/program files/microchip/xc32/v4.35/bin/bin/../../lib/gcc/pic32mx/8.3.1/../../../../pic32mx/lib/fpu64\libc-musl.a(__putc.o)
 .debug_info    0x000000000001354c      0x398 c:/program files/microchip/xc32/v4.35/bin/bin/../../lib/gcc/pic32mx/8.3.1/../../../../pic32mx/lib/fpu64\libc-musl.a(__stderr.o)
 .debug_info    0x00000000000138e4      0x2cc c:/program files/microchip/xc32/v4.35/bin/bin/../../lib/gcc/pic32mx/8.3.1/../../../../pic32mx/lib/fpu64\libc-musl.a(__stdio_exit.o)
 .debug_info    0x0000000000013bb0      0x42f c:/program files/microchip/xc32/v4.35/bin/bin/../../lib/gcc/pic32mx/8.3.1/../../../../pic32mx/lib/fpu64\libc-musl.a(__stdio_write.o)
 .debug_info    0x0000000000013fdf      0x398 c:/program files/microchip/xc32/v4.35/bin/bin/../../lib/gcc/pic32mx/8.3.1/../../../../pic32mx/lib/fpu64\libc-musl.a(__stdout.o)
 .debug_info    0x0000000000014377      0x265 c:/program files/microchip/xc32/v4.35/bin/bin/../../lib/gcc/pic32mx/8.3.1/../../../../pic32mx/lib/fpu64\libc-musl.a(__towrite.o)
 .debug_info    0x00000000000145dc      0x144 c:/program files/microchip/xc32/v4.35/bin/bin/../../lib/gcc/pic32mx/8.3.1/../../../../pic32mx/lib/fpu64\libc-musl.a(writev.o)
 .debug_info    0x0000000000014720      0x276 c:/program files/microchip/xc32/v4.35/bin/bin/../../lib/gcc/pic32mx/8.3.1/../../../../pic32mx/lib/fpu64\libc-musl.a(libc.o)
 .debug_info    0x0000000000014996      0x37f c:/program files/microchip/xc32/v4.35/bin/bin/../../lib/gcc/pic32mx/8.3.1/../../../../pic32mx/lib/fpu64\libc-musl.a(__overflow.o)
 .debug_info    0x0000000000014d15      0x1b1 c:/program files/microchip/xc32/v4.35/bin/bin/../../lib/gcc/pic32mx/8.3.1/../../../../pic32mx/lib/fpu64\libc-musl.a(__fclose.o)
 .debug_info    0x0000000000014ec6      0x2d0 c:/program files/microchip/xc32/v4.35/bin/bin/../../lib/gcc/pic32mx/8.3.1/../../../../pic32mx/lib/fpu64\libc-musl.a(__fopen.o)
 .debug_info    0x0000000000015196      0x261 c:/program files/microchip/xc32/v4.35/bin/bin/../../lib/gcc/pic32mx/8.3.1/../../../../pic32mx/lib/fpu64\libc-musl.a(__fseeko.o)
 .debug_info    0x00000000000153f7      0x283 c:/program files/microchip/xc32/v4.35/bin/bin/../../lib/gcc/pic32mx/8.3.1/../../../../pic32mx/lib/fpu64\libc-musl.a(__ftello.o)
 .debug_info    0x000000000001567a      0x2ac c:/program files/microchip/xc32/v4.35/bin/bin/../../lib/gcc/pic32mx/8.3.1/../../../../pic32mx/lib/fpu64\libc-musl.a(__fwrite.o)
 .debug_info    0x0000000000015926      0x1aa c:/program files/microchip/xc32/v4.35/bin/bin/../../lib/gcc/pic32mx/8.3.1/fpu64\libgcc.a(_lshrdi3.o)
 .debug_info    0x0000000000015ad0      0x1aa c:/program files/microchip/xc32/v4.35/bin/bin/../../lib/gcc/pic32mx/8.3.1/fpu64\libgcc.a(_ashldi3.o)
 .debug_info    0x0000000000015c7a      0x6ca c:/program files/microchip/xc32/v4.35/bin/bin/../../lib/gcc/pic32mx/8.3.1/fpu64\libgcc.a(_udivdi3.o)
 .debug_info    0x0000000000016344      0x73e c:/program files/microchip/xc32/v4.35/bin/bin/../../lib/gcc/pic32mx/8.3.1/fpu64\libgcc.a(_umoddi3.o)
 .debug_info    0x0000000000016a82       0x97 c:/program files/microchip/xc32/v4.35/bin/bin/../../lib/gcc/pic32mx/8.3.1/../../../../pic32mx/lib/fpu64\libpic32.a(sbrk.o)
 .debug_info    0x0000000000016b19       0x3f c:/program files/microchip/xc32/v4.35/bin/bin/../../lib/gcc/pic32mx/8.3.1/../../../../pic32mx/lib/fpu64\libpic32.a(lseek.o)
 .debug_info    0x0000000000016b58       0x3f c:/program files/microchip/xc32/v4.35/bin/bin/../../lib/gcc/pic32mx/8.3.1/../../../../pic32mx/lib/fpu64\libpic32.a(close.o)

.debug_abbrev   0x0000000000000000     0x774e
 *.elf(.debug_abbrev)
 *(.debug_abbrev)
 .debug_abbrev  0x0000000000000000       0x2e c:/program files/microchip/xc32/v4.35/bin/bin/../../lib/gcc/pic32mx/8.3.1/../../../../pic32mx/lib/fpu64\software-debug-break.o
 .debug_abbrev  0x000000000000002e      0x224 build/Config_2/debug/_ext/1982400153/plib_adchs.o
 .debug_abbrev  0x0000000000000252      0x2cf build/Config_2/debug/_ext/1984168316/plib_canfd1.o
 .debug_abbrev  0x0000000000000521      0x2e0 build/Config_2/debug/_ext/1984168316/plib_canfd3.o
 .debug_abbrev  0x0000000000000801      0x2e0 build/Config_2/debug/_ext/1984168316/plib_canfd2.o
 .debug_abbrev  0x0000000000000ae1      0x2e0 build/Config_2/debug/_ext/1984168316/plib_canfd4.o
 .debug_abbrev  0x0000000000000dc1       0xba build/Config_2/debug/_ext/60165520/plib_clk.o
 .debug_abbrev  0x0000000000000e7b      0x196 build/Config_2/debug/_ext/1249264884/plib_coretimer.o
 .debug_abbrev  0x0000000000001011      0x2fb build/Config_2/debug/_ext/1865161661/plib_dmac.o
 .debug_abbrev  0x000000000000130c      0x12b build/Config_2/debug/_ext/1865200349/plib_evic.o
 .debug_abbrev  0x0000000000001437      0x12c build/Config_2/debug/_ext/1865254177/plib_gpio.o
 .debug_abbrev  0x0000000000001563      0x1d2 build/Config_2/debug/_ext/60181895/plib_tmr2.o
 .debug_abbrev  0x0000000000001735      0x1d2 build/Config_2/debug/_ext/60181895/plib_tmr4.o
 .debug_abbrev  0x0000000000001907      0x1d2 build/Config_2/debug/_ext/60181895/plib_tmr3.o
 .debug_abbrev  0x0000000000001ad9      0x1d2 build/Config_2/debug/_ext/60181895/plib_tmr6.o
 .debug_abbrev  0x0000000000001cab      0x1d2 build/Config_2/debug/_ext/60181895/plib_tmr5.o
 .debug_abbrev  0x0000000000001e7d      0x20b build/Config_2/debug/_ext/1865638794/plib_tmr1.o
 .debug_abbrev  0x0000000000002088      0x242 build/Config_2/debug/_ext/1865657120/plib_uart1.o
 .debug_abbrev  0x00000000000022ca      0x242 build/Config_2/debug/_ext/1865657120/plib_uart3.o
 .debug_abbrev  0x000000000000250c      0x112 build/Config_2/debug/_ext/60184501/plib_wdt.o
 .debug_abbrev  0x000000000000261e       0xd8 build/Config_2/debug/_ext/163028504/xc32_monitor.o
 .debug_abbrev  0x00000000000026f6      0x161 build/Config_2/debug/_ext/1171490990/initialization.o
 .debug_abbrev  0x0000000000002857       0x67 build/Config_2/debug/_ext/1171490990/interrupts.o
 .debug_abbrev  0x00000000000028be       0x7b build/Config_2/debug/_ext/1171490990/exceptions.o
 .debug_abbrev  0x0000000000002939      0x3fb build/Config_2/debug/_ext/1360937237/main.o
 .debug_abbrev  0x0000000000002d34      0x2a9 build/Config_2/debug/APPS.o
 .debug_abbrev  0x0000000000002fdd      0x2da build/Config_2/debug/CAN_utils.o
 .debug_abbrev  0x00000000000032b7      0x23f build/Config_2/debug/_ext/772537440/cansart.o
 .debug_abbrev  0x00000000000034f6      0x13d build/Config_2/debug/_ext/772537440/cansartP.o
 .debug_abbrev  0x0000000000003633      0x108 build/Config_2/debug/TorqueControl.o
 .debug_abbrev  0x000000000000373b       0x12 C:\Users\pedro\AppData\Local\Temp\ccPLik8y.o
 .debug_abbrev  0x000000000000374d       0x2e c:/program files/microchip/xc32/v4.35/bin/bin/../../lib/gcc/pic32mx/8.3.1/../../../../pic32mx/lib/fpu64\libpic32.a(default-on-reset.o)
 .debug_abbrev  0x000000000000377b       0x2e c:/program files/microchip/xc32/v4.35/bin/bin/../../lib/gcc/pic32mx/8.3.1/../../../../pic32mx/lib/fpu64\libpic32.a(default-on-bootstrap.o)
 .debug_abbrev  0x00000000000037a9       0x31 c:/program files/microchip/xc32/v4.35/bin/bin/../../lib/gcc/pic32mx/8.3.1/../../../../pic32mx/lib/fpu64\libpic32.a(defaultinterrupt.o)
 .debug_abbrev  0x00000000000037da      0x12b c:/program files/microchip/xc32/v4.35/bin/bin/../../lib/gcc/pic32mx/8.3.1/../../../../pic32mx/lib/fpu64\libc-musl.a(__sio_printf_dn.o)
 .debug_abbrev  0x0000000000003905      0x161 c:/program files/microchip/xc32/v4.35/bin/bin/../../lib/gcc/pic32mx/8.3.1/../../../../pic32mx/lib/fpu64\libc-musl.a(__fmt_d.o)
 .debug_abbrev  0x0000000000003a66       0xc3 c:/program files/microchip/xc32/v4.35/bin/bin/../../lib/gcc/pic32mx/8.3.1/../../../../pic32mx/lib/fpu64\libc-musl.a(__pop_int.o)
 .debug_abbrev  0x0000000000003b29       0xd7 c:/program files/microchip/xc32/v4.35/bin/bin/../../lib/gcc/pic32mx/8.3.1/../../../../pic32mx/lib/fpu64\libc-musl.a(__pop_ptr.o)
 .debug_abbrev  0x0000000000003c00      0x318 c:/program files/microchip/xc32/v4.35/bin/bin/../../lib/gcc/pic32mx/8.3.1/../../../../pic32mx/lib/fpu64\libc-musl.a(__printf_core.o)
 .debug_abbrev  0x0000000000003f18      0x198 c:/program files/microchip/xc32/v4.35/bin/bin/../../lib/gcc/pic32mx/8.3.1/../../../../pic32mx/lib/fpu64\libc-musl.a(fflush.o)
 .debug_abbrev  0x00000000000040b0      0x19f c:/program files/microchip/xc32/v4.35/bin/bin/../../lib/gcc/pic32mx/8.3.1/../../../../pic32mx/lib/fpu64\libc-musl.a(stdin.o)
 .debug_abbrev  0x000000000000424f      0x1bd c:/program files/microchip/xc32/v4.35/bin/bin/../../lib/gcc/pic32mx/8.3.1/../../../../pic32mx/lib/fpu64\libc-musl.a(stdout.o)
 .debug_abbrev  0x000000000000440c      0x159 c:/program files/microchip/xc32/v4.35/bin/bin/../../lib/gcc/pic32mx/8.3.1/../../../../pic32mx/lib/fpu64\libc-musl.a(puts.o)
 .debug_abbrev  0x0000000000004565       0xa8 c:/program files/microchip/xc32/v4.35/bin/bin/../../lib/gcc/pic32mx/8.3.1/../../../../pic32mx/lib/fpu64\libc-musl.a(setbuf.o)
 .debug_abbrev  0x000000000000460d       0xc4 c:/program files/microchip/xc32/v4.35/bin/bin/../../lib/gcc/pic32mx/8.3.1/../../../../pic32mx/lib/fpu64\libc-musl.a(atoi.o)
 .debug_abbrev  0x00000000000046d1       0xaa c:/program files/microchip/xc32/v4.35/bin/bin/../../lib/gcc/pic32mx/8.3.1/../../../../pic32mx/lib/fpu64\libc-musl.a(memcpy.o)
 .debug_abbrev  0x000000000000477b       0x91 c:/program files/microchip/xc32/v4.35/bin/bin/../../lib/gcc/pic32mx/8.3.1/../../../../pic32mx/lib/fpu64\libc-musl.a(strlen.o)
 .debug_abbrev  0x000000000000480c       0xf1 c:/program files/microchip/xc32/v4.35/bin/bin/../../lib/gcc/pic32mx/8.3.1/../../../../pic32mx/lib/fpu64\libc-musl.a(tolower.o)
 .debug_abbrev  0x00000000000048fd      0x118 c:/program files/microchip/xc32/v4.35/bin/bin/../../lib/gcc/pic32mx/8.3.1/../../../../pic32mx/lib/fpu64\libc-musl.a(__int_vfprintf.o)
 .debug_abbrev  0x0000000000004a15      0x146 c:/program files/microchip/xc32/v4.35/bin/bin/../../lib/gcc/pic32mx/8.3.1/../../../../pic32mx/lib/fpu64\libc-musl.a(fputs.o)
 .debug_abbrev  0x0000000000004b5b       0xe5 c:/program files/microchip/xc32/v4.35/bin/bin/../../lib/gcc/pic32mx/8.3.1/../../../../pic32mx/lib/fpu64\libc-musl.a(__cvt_u.o)
 .debug_abbrev  0x0000000000004c40       0x81 c:/program files/microchip/xc32/v4.35/bin/bin/../../lib/gcc/pic32mx/8.3.1/../../../../pic32mx/lib/fpu64\libc-musl.a(__io_init_needed.o)
 .debug_abbrev  0x0000000000004cc1       0x67 c:/program files/microchip/xc32/v4.35/bin/bin/../../lib/gcc/pic32mx/8.3.1/../../../../pic32mx/lib/fpu64\libc-musl.a(__io_rw_needed.o)
 .debug_abbrev  0x0000000000004d28      0x17a c:/program files/microchip/xc32/v4.35/bin/bin/../../lib/gcc/pic32mx/8.3.1/../../../../pic32mx/lib/fpu64\libc-musl.a(__out.o)
 .debug_abbrev  0x0000000000004ea2       0xc3 c:/program files/microchip/xc32/v4.35/bin/bin/../../lib/gcc/pic32mx/8.3.1/../../../../pic32mx/lib/fpu64\libc-musl.a(__pop_float.o)
 .debug_abbrev  0x0000000000004f65      0x15a c:/program files/microchip/xc32/v4.35/bin/bin/../../lib/gcc/pic32mx/8.3.1/../../../../pic32mx/lib/fpu64\libc-musl.a(__stdio_close.o)
 .debug_abbrev  0x00000000000050bf      0x16c c:/program files/microchip/xc32/v4.35/bin/bin/../../lib/gcc/pic32mx/8.3.1/../../../../pic32mx/lib/fpu64\libc-musl.a(__stdio_read.o)
 .debug_abbrev  0x000000000000522b       0xf5 c:/program files/microchip/xc32/v4.35/bin/bin/../../lib/gcc/pic32mx/8.3.1/../../../../pic32mx/lib/fpu64\libc-musl.a(__towrite_rw.o)
 .debug_abbrev  0x0000000000005320      0x13c c:/program files/microchip/xc32/v4.35/bin/bin/../../lib/gcc/pic32mx/8.3.1/../../../../pic32mx/lib/fpu64\libc-musl.a(fwrite.o)
 .debug_abbrev  0x000000000000545c      0x122 c:/program files/microchip/xc32/v4.35/bin/bin/../../lib/gcc/pic32mx/8.3.1/../../../../pic32mx/lib/fpu64\libc-musl.a(putc.o)
 .debug_abbrev  0x000000000000557e      0x135 c:/program files/microchip/xc32/v4.35/bin/bin/../../lib/gcc/pic32mx/8.3.1/../../../../pic32mx/lib/fpu64\libc-musl.a(setvbuf.o)
 .debug_abbrev  0x00000000000056b3       0xf7 c:/program files/microchip/xc32/v4.35/bin/bin/../../lib/gcc/pic32mx/8.3.1/../../../../pic32mx/lib/fpu64\libc-musl.a(readv.o)
 .debug_abbrev  0x00000000000057aa      0x43a c:/program files/microchip/xc32/v4.35/bin/bin/../../lib/gcc/pic32mx/8.3.1/../../../../pic32mx/lib/fpu64\libc-musl.a(malloc.o)
 .debug_abbrev  0x0000000000005be4       0xc4 c:/program files/microchip/xc32/v4.35/bin/bin/../../lib/gcc/pic32mx/8.3.1/../../../../pic32mx/lib/fpu64\libc-musl.a(expand_heap.o)
 .debug_abbrev  0x0000000000005ca8      0x12c c:/program files/microchip/xc32/v4.35/bin/bin/../../lib/gcc/pic32mx/8.3.1/../../../../pic32mx/lib/fpu64\libc-musl.a(__fopen_rw.o)
 .debug_abbrev  0x0000000000005dd4      0x10b c:/program files/microchip/xc32/v4.35/bin/bin/../../lib/gcc/pic32mx/8.3.1/../../../../pic32mx/lib/fpu64\libc-musl.a(__ftello_rw.o)
 .debug_abbrev  0x0000000000005edf       0x65 c:/program files/microchip/xc32/v4.35/bin/bin/../../lib/gcc/pic32mx/8.3.1/../../../../pic32mx/lib/fpu64\libc-musl.a(__init_stdio.o)
 .debug_abbrev  0x0000000000005f44       0x67 c:/program files/microchip/xc32/v4.35/bin/bin/../../lib/gcc/pic32mx/8.3.1/../../../../pic32mx/lib/fpu64\libc-musl.a(__io_buf_needed.o)
 .debug_abbrev  0x0000000000005fab       0x67 c:/program files/microchip/xc32/v4.35/bin/bin/../../lib/gcc/pic32mx/8.3.1/../../../../pic32mx/lib/fpu64\libc-musl.a(__io_file_needed.o)
 .debug_abbrev  0x0000000000006012       0x67 c:/program files/microchip/xc32/v4.35/bin/bin/../../lib/gcc/pic32mx/8.3.1/../../../../pic32mx/lib/fpu64\libc-musl.a(__io_std_needed.o)
 .debug_abbrev  0x0000000000006079      0x109 c:/program files/microchip/xc32/v4.35/bin/bin/../../lib/gcc/pic32mx/8.3.1/../../../../pic32mx/lib/fpu64\libc-musl.a(__putc.o)
 .debug_abbrev  0x0000000000006182      0x16a c:/program files/microchip/xc32/v4.35/bin/bin/../../lib/gcc/pic32mx/8.3.1/../../../../pic32mx/lib/fpu64\libc-musl.a(__stderr.o)
 .debug_abbrev  0x00000000000062ec      0x170 c:/program files/microchip/xc32/v4.35/bin/bin/../../lib/gcc/pic32mx/8.3.1/../../../../pic32mx/lib/fpu64\libc-musl.a(__stdio_exit.o)
 .debug_abbrev  0x000000000000645c      0x1ce c:/program files/microchip/xc32/v4.35/bin/bin/../../lib/gcc/pic32mx/8.3.1/../../../../pic32mx/lib/fpu64\libc-musl.a(__stdio_write.o)
 .debug_abbrev  0x000000000000662a      0x16a c:/program files/microchip/xc32/v4.35/bin/bin/../../lib/gcc/pic32mx/8.3.1/../../../../pic32mx/lib/fpu64\libc-musl.a(__stdout.o)
 .debug_abbrev  0x0000000000006794      0x125 c:/program files/microchip/xc32/v4.35/bin/bin/../../lib/gcc/pic32mx/8.3.1/../../../../pic32mx/lib/fpu64\libc-musl.a(__towrite.o)
 .debug_abbrev  0x00000000000068b9       0xf7 c:/program files/microchip/xc32/v4.35/bin/bin/../../lib/gcc/pic32mx/8.3.1/../../../../pic32mx/lib/fpu64\libc-musl.a(writev.o)
 .debug_abbrev  0x00000000000069b0       0xd4 c:/program files/microchip/xc32/v4.35/bin/bin/../../lib/gcc/pic32mx/8.3.1/../../../../pic32mx/lib/fpu64\libc-musl.a(libc.o)
 .debug_abbrev  0x0000000000006a84      0x141 c:/program files/microchip/xc32/v4.35/bin/bin/../../lib/gcc/pic32mx/8.3.1/../../../../pic32mx/lib/fpu64\libc-musl.a(__overflow.o)
 .debug_abbrev  0x0000000000006bc5       0xdd c:/program files/microchip/xc32/v4.35/bin/bin/../../lib/gcc/pic32mx/8.3.1/../../../../pic32mx/lib/fpu64\libc-musl.a(__fclose.o)
 .debug_abbrev  0x0000000000006ca2      0x168 c:/program files/microchip/xc32/v4.35/bin/bin/../../lib/gcc/pic32mx/8.3.1/../../../../pic32mx/lib/fpu64\libc-musl.a(__fopen.o)
 .debug_abbrev  0x0000000000006e0a       0xf8 c:/program files/microchip/xc32/v4.35/bin/bin/../../lib/gcc/pic32mx/8.3.1/../../../../pic32mx/lib/fpu64\libc-musl.a(__fseeko.o)
 .debug_abbrev  0x0000000000006f02      0x111 c:/program files/microchip/xc32/v4.35/bin/bin/../../lib/gcc/pic32mx/8.3.1/../../../../pic32mx/lib/fpu64\libc-musl.a(__ftello.o)
 .debug_abbrev  0x0000000000007013      0x121 c:/program files/microchip/xc32/v4.35/bin/bin/../../lib/gcc/pic32mx/8.3.1/../../../../pic32mx/lib/fpu64\libc-musl.a(__fwrite.o)
 .debug_abbrev  0x0000000000007134      0x121 c:/program files/microchip/xc32/v4.35/bin/bin/../../lib/gcc/pic32mx/8.3.1/fpu64\libgcc.a(_lshrdi3.o)
 .debug_abbrev  0x0000000000007255      0x121 c:/program files/microchip/xc32/v4.35/bin/bin/../../lib/gcc/pic32mx/8.3.1/fpu64\libgcc.a(_ashldi3.o)
 .debug_abbrev  0x0000000000007376      0x184 c:/program files/microchip/xc32/v4.35/bin/bin/../../lib/gcc/pic32mx/8.3.1/fpu64\libgcc.a(_udivdi3.o)
 .debug_abbrev  0x00000000000074fa      0x19a c:/program files/microchip/xc32/v4.35/bin/bin/../../lib/gcc/pic32mx/8.3.1/fpu64\libgcc.a(_umoddi3.o)
 .debug_abbrev  0x0000000000007694       0x5e c:/program files/microchip/xc32/v4.35/bin/bin/../../lib/gcc/pic32mx/8.3.1/../../../../pic32mx/lib/fpu64\libpic32.a(sbrk.o)
 .debug_abbrev  0x00000000000076f2       0x2e c:/program files/microchip/xc32/v4.35/bin/bin/../../lib/gcc/pic32mx/8.3.1/../../../../pic32mx/lib/fpu64\libpic32.a(lseek.o)
 .debug_abbrev  0x0000000000007720       0x2e c:/program files/microchip/xc32/v4.35/bin/bin/../../lib/gcc/pic32mx/8.3.1/../../../../pic32mx/lib/fpu64\libpic32.a(close.o)

.debug_line     0x0000000000000000    0x114e9
 *.elf(.debug_line)
 *(.debug_line)
 .debug_line    0x0000000000000000       0xb3 c:/program files/microchip/xc32/v4.35/bin/bin/../../lib/gcc/pic32mx/8.3.1/../../../../pic32mx/lib/fpu64\software-debug-break.o
 .debug_line    0x00000000000000b3      0x69a build/Config_2/debug/_ext/1982400153/plib_adchs.o
 .debug_line    0x000000000000074d      0xa6c build/Config_2/debug/_ext/1984168316/plib_canfd1.o
 .debug_line    0x00000000000011b9      0xae2 build/Config_2/debug/_ext/1984168316/plib_canfd3.o
 .debug_line    0x0000000000001c9b      0xae2 build/Config_2/debug/_ext/1984168316/plib_canfd2.o
 .debug_line    0x000000000000277d      0xae4 build/Config_2/debug/_ext/1984168316/plib_canfd4.o
 .debug_line    0x0000000000003261      0x1d0 build/Config_2/debug/_ext/60165520/plib_clk.o
 .debug_line    0x0000000000003431      0x2d7 build/Config_2/debug/_ext/1249264884/plib_coretimer.o
 .debug_line    0x0000000000003708      0x944 build/Config_2/debug/_ext/1865161661/plib_dmac.o
 .debug_line    0x000000000000404c      0x3a2 build/Config_2/debug/_ext/1865200349/plib_evic.o
 .debug_line    0x00000000000043ee      0x3dd build/Config_2/debug/_ext/1865254177/plib_gpio.o
 .debug_line    0x00000000000047cb      0x2ea build/Config_2/debug/_ext/60181895/plib_tmr2.o
 .debug_line    0x0000000000004ab5      0x2ea build/Config_2/debug/_ext/60181895/plib_tmr4.o
 .debug_line    0x0000000000004d9f      0x2ea build/Config_2/debug/_ext/60181895/plib_tmr3.o
 .debug_line    0x0000000000005089      0x2ea build/Config_2/debug/_ext/60181895/plib_tmr6.o
 .debug_line    0x0000000000005373      0x2ea build/Config_2/debug/_ext/60181895/plib_tmr5.o
 .debug_line    0x000000000000565d      0x2f6 build/Config_2/debug/_ext/1865638794/plib_tmr1.o
 .debug_line    0x0000000000005953      0x5ae build/Config_2/debug/_ext/1865657120/plib_uart1.o
 .debug_line    0x0000000000005f01      0x5ae build/Config_2/debug/_ext/1865657120/plib_uart3.o
 .debug_line    0x00000000000064af      0x211 build/Config_2/debug/_ext/60184501/plib_wdt.o
 .debug_line    0x00000000000066c0      0x1c2 build/Config_2/debug/_ext/163028504/xc32_monitor.o
 .debug_line    0x0000000000006882      0x6e5 build/Config_2/debug/_ext/1171490990/initialization.o
 .debug_line    0x0000000000006f67      0x1cd build/Config_2/debug/_ext/1171490990/interrupts.o
 .debug_line    0x0000000000007134       0xfd build/Config_2/debug/_ext/1171490990/exceptions.o
 .debug_line    0x0000000000007231      0xd9f build/Config_2/debug/_ext/1360937237/main.o
 .debug_line    0x0000000000007fd0      0x48c build/Config_2/debug/APPS.o
 .debug_line    0x000000000000845c      0xb1f build/Config_2/debug/CAN_utils.o
 .debug_line    0x0000000000008f7b      0x3ef build/Config_2/debug/_ext/772537440/cansart.o
 .debug_line    0x000000000000936a      0x34d build/Config_2/debug/_ext/772537440/cansartP.o
 .debug_line    0x00000000000096b7      0x109 build/Config_2/debug/TorqueControl.o
 .debug_line    0x00000000000097c0      0x156 C:\Users\pedro\AppData\Local\Temp\ccPLik8y.o
 .debug_line    0x0000000000009916       0xa8 c:/program files/microchip/xc32/v4.35/bin/bin/../../lib/gcc/pic32mx/8.3.1/../../../../pic32mx/lib/fpu64\libpic32.a(default-on-reset.o)
 .debug_line    0x00000000000099be       0xac c:/program files/microchip/xc32/v4.35/bin/bin/../../lib/gcc/pic32mx/8.3.1/../../../../pic32mx/lib/fpu64\libpic32.a(default-on-bootstrap.o)
 .debug_line    0x0000000000009a6a       0xcb c:/program files/microchip/xc32/v4.35/bin/bin/../../lib/gcc/pic32mx/8.3.1/../../../../pic32mx/lib/fpu64\libpic32.a(defaultinterrupt.o)
 .debug_line    0x0000000000009b35      0x261 c:/program files/microchip/xc32/v4.35/bin/bin/../../lib/gcc/pic32mx/8.3.1/../../../../pic32mx/lib/fpu64\libc-musl.a(__sio_printf_dn.o)
 .debug_line    0x0000000000009d96      0x256 c:/program files/microchip/xc32/v4.35/bin/bin/../../lib/gcc/pic32mx/8.3.1/../../../../pic32mx/lib/fpu64\libc-musl.a(__fmt_d.o)
 .debug_line    0x0000000000009fec      0x252 c:/program files/microchip/xc32/v4.35/bin/bin/../../lib/gcc/pic32mx/8.3.1/../../../../pic32mx/lib/fpu64\libc-musl.a(__pop_int.o)
 .debug_line    0x000000000000a23e      0x20b c:/program files/microchip/xc32/v4.35/bin/bin/../../lib/gcc/pic32mx/8.3.1/../../../../pic32mx/lib/fpu64\libc-musl.a(__pop_ptr.o)
 .debug_line    0x000000000000a449      0x702 c:/program files/microchip/xc32/v4.35/bin/bin/../../lib/gcc/pic32mx/8.3.1/../../../../pic32mx/lib/fpu64\libc-musl.a(__printf_core.o)
 .debug_line    0x000000000000ab4b      0x1f7 c:/program files/microchip/xc32/v4.35/bin/bin/../../lib/gcc/pic32mx/8.3.1/../../../../pic32mx/lib/fpu64\libc-musl.a(fflush.o)
 .debug_line    0x000000000000ad42      0x238 c:/program files/microchip/xc32/v4.35/bin/bin/../../lib/gcc/pic32mx/8.3.1/../../../../pic32mx/lib/fpu64\libc-musl.a(stdin.o)
 .debug_line    0x000000000000af7a      0x266 c:/program files/microchip/xc32/v4.35/bin/bin/../../lib/gcc/pic32mx/8.3.1/../../../../pic32mx/lib/fpu64\libc-musl.a(stdout.o)
 .debug_line    0x000000000000b1e0      0x22c c:/program files/microchip/xc32/v4.35/bin/bin/../../lib/gcc/pic32mx/8.3.1/../../../../pic32mx/lib/fpu64\libc-musl.a(puts.o)
 .debug_line    0x000000000000b40c      0x198 c:/program files/microchip/xc32/v4.35/bin/bin/../../lib/gcc/pic32mx/8.3.1/../../../../pic32mx/lib/fpu64\libc-musl.a(setbuf.o)
 .debug_line    0x000000000000b5a4      0x172 c:/program files/microchip/xc32/v4.35/bin/bin/../../lib/gcc/pic32mx/8.3.1/../../../../pic32mx/lib/fpu64\libc-musl.a(atoi.o)
 .debug_line    0x000000000000b716      0x13f c:/program files/microchip/xc32/v4.35/bin/bin/../../lib/gcc/pic32mx/8.3.1/../../../../pic32mx/lib/fpu64\libc-musl.a(memcpy.o)
 .debug_line    0x000000000000b855      0x137 c:/program files/microchip/xc32/v4.35/bin/bin/../../lib/gcc/pic32mx/8.3.1/../../../../pic32mx/lib/fpu64\libc-musl.a(strlen.o)
 .debug_line    0x000000000000b98c      0x1b9 c:/program files/microchip/xc32/v4.35/bin/bin/../../lib/gcc/pic32mx/8.3.1/../../../../pic32mx/lib/fpu64\libc-musl.a(tolower.o)
 .debug_line    0x000000000000bb45      0x1c1 c:/program files/microchip/xc32/v4.35/bin/bin/../../lib/gcc/pic32mx/8.3.1/../../../../pic32mx/lib/fpu64\libc-musl.a(__int_vfprintf.o)
 .debug_line    0x000000000000bd06      0x298 c:/program files/microchip/xc32/v4.35/bin/bin/../../lib/gcc/pic32mx/8.3.1/../../../../pic32mx/lib/fpu64\libc-musl.a(fputs.o)
 .debug_line    0x000000000000bf9e      0x23a c:/program files/microchip/xc32/v4.35/bin/bin/../../lib/gcc/pic32mx/8.3.1/../../../../pic32mx/lib/fpu64\libc-musl.a(__cvt_u.o)
 .debug_line    0x000000000000c1d8      0x14b c:/program files/microchip/xc32/v4.35/bin/bin/../../lib/gcc/pic32mx/8.3.1/../../../../pic32mx/lib/fpu64\libc-musl.a(__io_init_needed.o)
 .debug_line    0x000000000000c323      0x13b c:/program files/microchip/xc32/v4.35/bin/bin/../../lib/gcc/pic32mx/8.3.1/../../../../pic32mx/lib/fpu64\libc-musl.a(__io_rw_needed.o)
 .debug_line    0x000000000000c45e      0x29f c:/program files/microchip/xc32/v4.35/bin/bin/../../lib/gcc/pic32mx/8.3.1/../../../../pic32mx/lib/fpu64\libc-musl.a(__out.o)
 .debug_line    0x000000000000c6fd      0x1b3 c:/program files/microchip/xc32/v4.35/bin/bin/../../lib/gcc/pic32mx/8.3.1/../../../../pic32mx/lib/fpu64\libc-musl.a(__pop_float.o)
 .debug_line    0x000000000000c8b0      0x2eb c:/program files/microchip/xc32/v4.35/bin/bin/../../lib/gcc/pic32mx/8.3.1/../../../../pic32mx/lib/fpu64\libc-musl.a(__stdio_close.o)
 .debug_line    0x000000000000cb9b      0x295 c:/program files/microchip/xc32/v4.35/bin/bin/../../lib/gcc/pic32mx/8.3.1/../../../../pic32mx/lib/fpu64\libc-musl.a(__stdio_read.o)
 .debug_line    0x000000000000ce30      0x242 c:/program files/microchip/xc32/v4.35/bin/bin/../../lib/gcc/pic32mx/8.3.1/../../../../pic32mx/lib/fpu64\libc-musl.a(__towrite_rw.o)
 .debug_line    0x000000000000d072      0x1f6 c:/program files/microchip/xc32/v4.35/bin/bin/../../lib/gcc/pic32mx/8.3.1/../../../../pic32mx/lib/fpu64\libc-musl.a(fwrite.o)
 .debug_line    0x000000000000d268      0x208 c:/program files/microchip/xc32/v4.35/bin/bin/../../lib/gcc/pic32mx/8.3.1/../../../../pic32mx/lib/fpu64\libc-musl.a(putc.o)
 .debug_line    0x000000000000d470      0x299 c:/program files/microchip/xc32/v4.35/bin/bin/../../lib/gcc/pic32mx/8.3.1/../../../../pic32mx/lib/fpu64\libc-musl.a(setvbuf.o)
 .debug_line    0x000000000000d709      0x1b6 c:/program files/microchip/xc32/v4.35/bin/bin/../../lib/gcc/pic32mx/8.3.1/../../../../pic32mx/lib/fpu64\libc-musl.a(readv.o)
 .debug_line    0x000000000000d8bf      0xb30 c:/program files/microchip/xc32/v4.35/bin/bin/../../lib/gcc/pic32mx/8.3.1/../../../../pic32mx/lib/fpu64\libc-musl.a(malloc.o)
 .debug_line    0x000000000000e3ef      0x148 c:/program files/microchip/xc32/v4.35/bin/bin/../../lib/gcc/pic32mx/8.3.1/../../../../pic32mx/lib/fpu64\libc-musl.a(expand_heap.o)
 .debug_line    0x000000000000e537      0x2ea c:/program files/microchip/xc32/v4.35/bin/bin/../../lib/gcc/pic32mx/8.3.1/../../../../pic32mx/lib/fpu64\libc-musl.a(__fopen_rw.o)
 .debug_line    0x000000000000e821      0x233 c:/program files/microchip/xc32/v4.35/bin/bin/../../lib/gcc/pic32mx/8.3.1/../../../../pic32mx/lib/fpu64\libc-musl.a(__ftello_rw.o)
 .debug_line    0x000000000000ea54       0xcb c:/program files/microchip/xc32/v4.35/bin/bin/../../lib/gcc/pic32mx/8.3.1/../../../../pic32mx/lib/fpu64\libc-musl.a(__init_stdio.o)
 .debug_line    0x000000000000eb1f      0x13f c:/program files/microchip/xc32/v4.35/bin/bin/../../lib/gcc/pic32mx/8.3.1/../../../../pic32mx/lib/fpu64\libc-musl.a(__io_buf_needed.o)
 .debug_line    0x000000000000ec5e       0xbf c:/program files/microchip/xc32/v4.35/bin/bin/../../lib/gcc/pic32mx/8.3.1/../../../../pic32mx/lib/fpu64\libc-musl.a(__io_file_needed.o)
 .debug_line    0x000000000000ed1d      0x13e c:/program files/microchip/xc32/v4.35/bin/bin/../../lib/gcc/pic32mx/8.3.1/../../../../pic32mx/lib/fpu64\libc-musl.a(__io_std_needed.o)
 .debug_line    0x000000000000ee5b      0x1be c:/program files/microchip/xc32/v4.35/bin/bin/../../lib/gcc/pic32mx/8.3.1/../../../../pic32mx/lib/fpu64\libc-musl.a(__putc.o)
 .debug_line    0x000000000000f019      0x240 c:/program files/microchip/xc32/v4.35/bin/bin/../../lib/gcc/pic32mx/8.3.1/../../../../pic32mx/lib/fpu64\libc-musl.a(__stderr.o)
 .debug_line    0x000000000000f259      0x1d6 c:/program files/microchip/xc32/v4.35/bin/bin/../../lib/gcc/pic32mx/8.3.1/../../../../pic32mx/lib/fpu64\libc-musl.a(__stdio_exit.o)
 .debug_line    0x000000000000f42f      0x374 c:/program files/microchip/xc32/v4.35/bin/bin/../../lib/gcc/pic32mx/8.3.1/../../../../pic32mx/lib/fpu64\libc-musl.a(__stdio_write.o)
 .debug_line    0x000000000000f7a3      0x240 c:/program files/microchip/xc32/v4.35/bin/bin/../../lib/gcc/pic32mx/8.3.1/../../../../pic32mx/lib/fpu64\libc-musl.a(__stdout.o)
 .debug_line    0x000000000000f9e3      0x1dd c:/program files/microchip/xc32/v4.35/bin/bin/../../lib/gcc/pic32mx/8.3.1/../../../../pic32mx/lib/fpu64\libc-musl.a(__towrite.o)
 .debug_line    0x000000000000fbc0      0x1b7 c:/program files/microchip/xc32/v4.35/bin/bin/../../lib/gcc/pic32mx/8.3.1/../../../../pic32mx/lib/fpu64\libc-musl.a(writev.o)
 .debug_line    0x000000000000fd77      0x10f c:/program files/microchip/xc32/v4.35/bin/bin/../../lib/gcc/pic32mx/8.3.1/../../../../pic32mx/lib/fpu64\libc-musl.a(libc.o)
 .debug_line    0x000000000000fe86      0x250 c:/program files/microchip/xc32/v4.35/bin/bin/../../lib/gcc/pic32mx/8.3.1/../../../../pic32mx/lib/fpu64\libc-musl.a(__overflow.o)
 .debug_line    0x00000000000100d6      0x1ad c:/program files/microchip/xc32/v4.35/bin/bin/../../lib/gcc/pic32mx/8.3.1/../../../../pic32mx/lib/fpu64\libc-musl.a(__fclose.o)
 .debug_line    0x0000000000010283      0x277 c:/program files/microchip/xc32/v4.35/bin/bin/../../lib/gcc/pic32mx/8.3.1/../../../../pic32mx/lib/fpu64\libc-musl.a(__fopen.o)
 .debug_line    0x00000000000104fa      0x1a1 c:/program files/microchip/xc32/v4.35/bin/bin/../../lib/gcc/pic32mx/8.3.1/../../../../pic32mx/lib/fpu64\libc-musl.a(__fseeko.o)
 .debug_line    0x000000000001069b      0x1d2 c:/program files/microchip/xc32/v4.35/bin/bin/../../lib/gcc/pic32mx/8.3.1/../../../../pic32mx/lib/fpu64\libc-musl.a(__ftello.o)
 .debug_line    0x000000000001086d      0x1e4 c:/program files/microchip/xc32/v4.35/bin/bin/../../lib/gcc/pic32mx/8.3.1/../../../../pic32mx/lib/fpu64\libc-musl.a(__fwrite.o)
 .debug_line    0x0000000000010a51       0xdf c:/program files/microchip/xc32/v4.35/bin/bin/../../lib/gcc/pic32mx/8.3.1/fpu64\libgcc.a(_lshrdi3.o)
 .debug_line    0x0000000000010b30       0xe0 c:/program files/microchip/xc32/v4.35/bin/bin/../../lib/gcc/pic32mx/8.3.1/fpu64\libgcc.a(_ashldi3.o)
 .debug_line    0x0000000000010c10      0x2db c:/program files/microchip/xc32/v4.35/bin/bin/../../lib/gcc/pic32mx/8.3.1/fpu64\libgcc.a(_udivdi3.o)
 .debug_line    0x0000000000010eeb      0x312 c:/program files/microchip/xc32/v4.35/bin/bin/../../lib/gcc/pic32mx/8.3.1/fpu64\libgcc.a(_umoddi3.o)
 .debug_line    0x00000000000111fd      0x1b2 c:/program files/microchip/xc32/v4.35/bin/bin/../../lib/gcc/pic32mx/8.3.1/../../../../pic32mx/lib/fpu64\libpic32.a(sbrk.o)
 .debug_line    0x00000000000113af       0x9d c:/program files/microchip/xc32/v4.35/bin/bin/../../lib/gcc/pic32mx/8.3.1/../../../../pic32mx/lib/fpu64\libpic32.a(lseek.o)
 .debug_line    0x000000000001144c       0x9d c:/program files/microchip/xc32/v4.35/bin/bin/../../lib/gcc/pic32mx/8.3.1/../../../../pic32mx/lib/fpu64\libpic32.a(close.o)
 .debug_line    0x00000000000114e9        0x0 c:/program files/microchip/xc32/v4.35/bin/bin/../../lib/gcc/pic32mx/8.3.1/../../../../pic32mx/lib/fpu64\libpic32.a(errno.o)

.debug_frame    0x0000000000000000     0x2cf0
 *.elf(.debug_frame)
 *(.debug_frame)
 .debug_frame   0x0000000000000000       0x20 c:/program files/microchip/xc32/v4.35/bin/bin/../../lib/gcc/pic32mx/8.3.1/../../../../pic32mx/lib/fpu64\software-debug-break.o
 .debug_frame   0x0000000000000020      0x18c build/Config_2/debug/_ext/1982400153/plib_adchs.o
 .debug_frame   0x00000000000001ac      0x100 build/Config_2/debug/_ext/1984168316/plib_canfd1.o
 .debug_frame   0x00000000000002ac      0x110 build/Config_2/debug/_ext/1984168316/plib_canfd3.o
 .debug_frame   0x00000000000003bc      0x110 build/Config_2/debug/_ext/1984168316/plib_canfd2.o
 .debug_frame   0x00000000000004cc      0x110 build/Config_2/debug/_ext/1984168316/plib_canfd4.o
 .debug_frame   0x00000000000005dc       0x20 build/Config_2/debug/_ext/60165520/plib_clk.o
 .debug_frame   0x00000000000005fc       0xf4 build/Config_2/debug/_ext/1249264884/plib_coretimer.o
 .debug_frame   0x00000000000006f0      0x108 build/Config_2/debug/_ext/1865161661/plib_dmac.o
 .debug_frame   0x00000000000007f8       0xd4 build/Config_2/debug/_ext/1865200349/plib_evic.o
 .debug_frame   0x00000000000008cc       0xa0 build/Config_2/debug/_ext/1865254177/plib_gpio.o
 .debug_frame   0x000000000000096c       0xc0 build/Config_2/debug/_ext/60181895/plib_tmr2.o
 .debug_frame   0x0000000000000a2c       0xc0 build/Config_2/debug/_ext/60181895/plib_tmr4.o
 .debug_frame   0x0000000000000aec       0xc0 build/Config_2/debug/_ext/60181895/plib_tmr3.o
 .debug_frame   0x0000000000000bac       0xc0 build/Config_2/debug/_ext/60181895/plib_tmr6.o
 .debug_frame   0x0000000000000c6c       0xc0 build/Config_2/debug/_ext/60181895/plib_tmr5.o
 .debug_frame   0x0000000000000d2c       0xc0 build/Config_2/debug/_ext/1865638794/plib_tmr1.o
 .debug_frame   0x0000000000000dec      0x110 build/Config_2/debug/_ext/1865657120/plib_uart1.o
 .debug_frame   0x0000000000000efc      0x110 build/Config_2/debug/_ext/1865657120/plib_uart3.o
 .debug_frame   0x000000000000100c       0x80 build/Config_2/debug/_ext/60184501/plib_wdt.o
 .debug_frame   0x000000000000108c       0x54 build/Config_2/debug/_ext/163028504/xc32_monitor.o
 .debug_frame   0x00000000000010e0       0x2c build/Config_2/debug/_ext/1171490990/initialization.o
 .debug_frame   0x000000000000110c      0x66c build/Config_2/debug/_ext/1171490990/interrupts.o
 .debug_frame   0x0000000000001778       0x40 build/Config_2/debug/_ext/1171490990/exceptions.o
 .debug_frame   0x00000000000017b8      0x230 build/Config_2/debug/_ext/1360937237/main.o
 .debug_frame   0x00000000000019e8       0xa0 build/Config_2/debug/APPS.o
 .debug_frame   0x0000000000001a88      0x288 build/Config_2/debug/CAN_utils.o
 .debug_frame   0x0000000000001d10       0xe0 build/Config_2/debug/_ext/772537440/cansart.o
 .debug_frame   0x0000000000001df0       0x6c build/Config_2/debug/_ext/772537440/cansartP.o
 .debug_frame   0x0000000000001e5c       0x40 build/Config_2/debug/TorqueControl.o
 .debug_frame   0x0000000000001e9c       0x20 c:/program files/microchip/xc32/v4.35/bin/bin/../../lib/gcc/pic32mx/8.3.1/../../../../pic32mx/lib/fpu64\libpic32.a(default-on-reset.o)
 .debug_frame   0x0000000000001ebc       0x20 c:/program files/microchip/xc32/v4.35/bin/bin/../../lib/gcc/pic32mx/8.3.1/../../../../pic32mx/lib/fpu64\libpic32.a(default-on-bootstrap.o)
 .debug_frame   0x0000000000001edc       0x20 c:/program files/microchip/xc32/v4.35/bin/bin/../../lib/gcc/pic32mx/8.3.1/../../../../pic32mx/lib/fpu64\libpic32.a(defaultinterrupt.o)
 .debug_frame   0x0000000000001efc       0x48 c:/program files/microchip/xc32/v4.35/bin/bin/../../lib/gcc/pic32mx/8.3.1/../../../../pic32mx/lib/fpu64\libc-musl.a(__sio_printf_dn.o)
 .debug_frame   0x0000000000001f44       0x38 c:/program files/microchip/xc32/v4.35/bin/bin/../../lib/gcc/pic32mx/8.3.1/../../../../pic32mx/lib/fpu64\libc-musl.a(__fmt_d.o)
 .debug_frame   0x0000000000001f7c       0x20 c:/program files/microchip/xc32/v4.35/bin/bin/../../lib/gcc/pic32mx/8.3.1/../../../../pic32mx/lib/fpu64\libc-musl.a(__pop_int.o)
 .debug_frame   0x0000000000001f9c       0x20 c:/program files/microchip/xc32/v4.35/bin/bin/../../lib/gcc/pic32mx/8.3.1/../../../../pic32mx/lib/fpu64\libc-musl.a(__pop_ptr.o)
 .debug_frame   0x0000000000001fbc       0xc8 c:/program files/microchip/xc32/v4.35/bin/bin/../../lib/gcc/pic32mx/8.3.1/../../../../pic32mx/lib/fpu64\libc-musl.a(__printf_core.o)
 .debug_frame   0x0000000000002084       0x50 c:/program files/microchip/xc32/v4.35/bin/bin/../../lib/gcc/pic32mx/8.3.1/../../../../pic32mx/lib/fpu64\libc-musl.a(fflush.o)
 .debug_frame   0x00000000000020d4       0x3c c:/program files/microchip/xc32/v4.35/bin/bin/../../lib/gcc/pic32mx/8.3.1/../../../../pic32mx/lib/fpu64\libc-musl.a(stdin.o)
 .debug_frame   0x0000000000002110       0x4c c:/program files/microchip/xc32/v4.35/bin/bin/../../lib/gcc/pic32mx/8.3.1/../../../../pic32mx/lib/fpu64\libc-musl.a(stdout.o)
 .debug_frame   0x000000000000215c       0x2c c:/program files/microchip/xc32/v4.35/bin/bin/../../lib/gcc/pic32mx/8.3.1/../../../../pic32mx/lib/fpu64\libc-musl.a(puts.o)
 .debug_frame   0x0000000000002188       0x2c c:/program files/microchip/xc32/v4.35/bin/bin/../../lib/gcc/pic32mx/8.3.1/../../../../pic32mx/lib/fpu64\libc-musl.a(setbuf.o)
 .debug_frame   0x00000000000021b4       0x20 c:/program files/microchip/xc32/v4.35/bin/bin/../../lib/gcc/pic32mx/8.3.1/../../../../pic32mx/lib/fpu64\libc-musl.a(atoi.o)
 .debug_frame   0x00000000000021d4       0x20 c:/program files/microchip/xc32/v4.35/bin/bin/../../lib/gcc/pic32mx/8.3.1/../../../../pic32mx/lib/fpu64\libc-musl.a(memcpy.o)
 .debug_frame   0x00000000000021f4       0x20 c:/program files/microchip/xc32/v4.35/bin/bin/../../lib/gcc/pic32mx/8.3.1/../../../../pic32mx/lib/fpu64\libc-musl.a(strlen.o)
 .debug_frame   0x0000000000002214       0x3c c:/program files/microchip/xc32/v4.35/bin/bin/../../lib/gcc/pic32mx/8.3.1/../../../../pic32mx/lib/fpu64\libc-musl.a(tolower.o)
 .debug_frame   0x0000000000002250       0x2c c:/program files/microchip/xc32/v4.35/bin/bin/../../lib/gcc/pic32mx/8.3.1/../../../../pic32mx/lib/fpu64\libc-musl.a(__int_vfprintf.o)
 .debug_frame   0x000000000000227c       0x30 c:/program files/microchip/xc32/v4.35/bin/bin/../../lib/gcc/pic32mx/8.3.1/../../../../pic32mx/lib/fpu64\libc-musl.a(fputs.o)
 .debug_frame   0x00000000000022ac       0x40 c:/program files/microchip/xc32/v4.35/bin/bin/../../lib/gcc/pic32mx/8.3.1/../../../../pic32mx/lib/fpu64\libc-musl.a(__cvt_u.o)
 .debug_frame   0x00000000000022ec       0x48 c:/program files/microchip/xc32/v4.35/bin/bin/../../lib/gcc/pic32mx/8.3.1/../../../../pic32mx/lib/fpu64\libc-musl.a(__io_init_needed.o)
 .debug_frame   0x0000000000002334       0x2c c:/program files/microchip/xc32/v4.35/bin/bin/../../lib/gcc/pic32mx/8.3.1/../../../../pic32mx/lib/fpu64\libc-musl.a(__io_rw_needed.o)
 .debug_frame   0x0000000000002360       0x50 c:/program files/microchip/xc32/v4.35/bin/bin/../../lib/gcc/pic32mx/8.3.1/../../../../pic32mx/lib/fpu64\libc-musl.a(__out.o)
 .debug_frame   0x00000000000023b0       0x20 c:/program files/microchip/xc32/v4.35/bin/bin/../../lib/gcc/pic32mx/8.3.1/../../../../pic32mx/lib/fpu64\libc-musl.a(__pop_float.o)
 .debug_frame   0x00000000000023d0       0x50 c:/program files/microchip/xc32/v4.35/bin/bin/../../lib/gcc/pic32mx/8.3.1/../../../../pic32mx/lib/fpu64\libc-musl.a(__stdio_close.o)
 .debug_frame   0x0000000000002420       0x34 c:/program files/microchip/xc32/v4.35/bin/bin/../../lib/gcc/pic32mx/8.3.1/../../../../pic32mx/lib/fpu64\libc-musl.a(__stdio_read.o)
 .debug_frame   0x0000000000002454       0x20 c:/program files/microchip/xc32/v4.35/bin/bin/../../lib/gcc/pic32mx/8.3.1/../../../../pic32mx/lib/fpu64\libc-musl.a(__towrite_rw.o)
 .debug_frame   0x0000000000002474       0x50 c:/program files/microchip/xc32/v4.35/bin/bin/../../lib/gcc/pic32mx/8.3.1/../../../../pic32mx/lib/fpu64\libc-musl.a(fwrite.o)
 .debug_frame   0x00000000000024c4       0x64 c:/program files/microchip/xc32/v4.35/bin/bin/../../lib/gcc/pic32mx/8.3.1/../../../../pic32mx/lib/fpu64\libc-musl.a(putc.o)
 .debug_frame   0x0000000000002528       0x50 c:/program files/microchip/xc32/v4.35/bin/bin/../../lib/gcc/pic32mx/8.3.1/../../../../pic32mx/lib/fpu64\libc-musl.a(setvbuf.o)
 .debug_frame   0x0000000000002578       0x38 c:/program files/microchip/xc32/v4.35/bin/bin/../../lib/gcc/pic32mx/8.3.1/../../../../pic32mx/lib/fpu64\libc-musl.a(readv.o)
 .debug_frame   0x00000000000025b0      0x168 c:/program files/microchip/xc32/v4.35/bin/bin/../../lib/gcc/pic32mx/8.3.1/../../../../pic32mx/lib/fpu64\libc-musl.a(malloc.o)
 .debug_frame   0x0000000000002718       0x2c c:/program files/microchip/xc32/v4.35/bin/bin/../../lib/gcc/pic32mx/8.3.1/../../../../pic32mx/lib/fpu64\libc-musl.a(expand_heap.o)
 .debug_frame   0x0000000000002744       0x2c c:/program files/microchip/xc32/v4.35/bin/bin/../../lib/gcc/pic32mx/8.3.1/../../../../pic32mx/lib/fpu64\libc-musl.a(__fopen_rw.o)
 .debug_frame   0x0000000000002770       0x20 c:/program files/microchip/xc32/v4.35/bin/bin/../../lib/gcc/pic32mx/8.3.1/../../../../pic32mx/lib/fpu64\libc-musl.a(__ftello_rw.o)
 .debug_frame   0x0000000000002790       0x3c c:/program files/microchip/xc32/v4.35/bin/bin/../../lib/gcc/pic32mx/8.3.1/../../../../pic32mx/lib/fpu64\libc-musl.a(__init_stdio.o)
 .debug_frame   0x00000000000027cc       0x2c c:/program files/microchip/xc32/v4.35/bin/bin/../../lib/gcc/pic32mx/8.3.1/../../../../pic32mx/lib/fpu64\libc-musl.a(__io_buf_needed.o)
 .debug_frame   0x00000000000027f8       0x2c c:/program files/microchip/xc32/v4.35/bin/bin/../../lib/gcc/pic32mx/8.3.1/../../../../pic32mx/lib/fpu64\libc-musl.a(__io_file_needed.o)
 .debug_frame   0x0000000000002824       0x2c c:/program files/microchip/xc32/v4.35/bin/bin/../../lib/gcc/pic32mx/8.3.1/../../../../pic32mx/lib/fpu64\libc-musl.a(__io_std_needed.o)
 .debug_frame   0x0000000000002850       0x2c c:/program files/microchip/xc32/v4.35/bin/bin/../../lib/gcc/pic32mx/8.3.1/../../../../pic32mx/lib/fpu64\libc-musl.a(__putc.o)
 .debug_frame   0x000000000000287c       0x4c c:/program files/microchip/xc32/v4.35/bin/bin/../../lib/gcc/pic32mx/8.3.1/../../../../pic32mx/lib/fpu64\libc-musl.a(__stderr.o)
 .debug_frame   0x00000000000028c8       0x4c c:/program files/microchip/xc32/v4.35/bin/bin/../../lib/gcc/pic32mx/8.3.1/../../../../pic32mx/lib/fpu64\libc-musl.a(__stdio_exit.o)
 .debug_frame   0x0000000000002914       0x5c c:/program files/microchip/xc32/v4.35/bin/bin/../../lib/gcc/pic32mx/8.3.1/../../../../pic32mx/lib/fpu64\libc-musl.a(__stdio_write.o)
 .debug_frame   0x0000000000002970       0x4c c:/program files/microchip/xc32/v4.35/bin/bin/../../lib/gcc/pic32mx/8.3.1/../../../../pic32mx/lib/fpu64\libc-musl.a(__stdout.o)
 .debug_frame   0x00000000000029bc       0x3c c:/program files/microchip/xc32/v4.35/bin/bin/../../lib/gcc/pic32mx/8.3.1/../../../../pic32mx/lib/fpu64\libc-musl.a(__towrite.o)
 .debug_frame   0x00000000000029f8       0x38 c:/program files/microchip/xc32/v4.35/bin/bin/../../lib/gcc/pic32mx/8.3.1/../../../../pic32mx/lib/fpu64\libc-musl.a(writev.o)
 .debug_frame   0x0000000000002a30       0x30 c:/program files/microchip/xc32/v4.35/bin/bin/../../lib/gcc/pic32mx/8.3.1/../../../../pic32mx/lib/fpu64\libc-musl.a(__overflow.o)
 .debug_frame   0x0000000000002a60       0x2c c:/program files/microchip/xc32/v4.35/bin/bin/../../lib/gcc/pic32mx/8.3.1/../../../../pic32mx/lib/fpu64\libc-musl.a(__fclose.o)
 .debug_frame   0x0000000000002a8c       0x58 c:/program files/microchip/xc32/v4.35/bin/bin/../../lib/gcc/pic32mx/8.3.1/../../../../pic32mx/lib/fpu64\libc-musl.a(__fopen.o)
 .debug_frame   0x0000000000002ae4       0x2c c:/program files/microchip/xc32/v4.35/bin/bin/../../lib/gcc/pic32mx/8.3.1/../../../../pic32mx/lib/fpu64\libc-musl.a(__fseeko.o)
 .debug_frame   0x0000000000002b10       0x3c c:/program files/microchip/xc32/v4.35/bin/bin/../../lib/gcc/pic32mx/8.3.1/../../../../pic32mx/lib/fpu64\libc-musl.a(__ftello.o)
 .debug_frame   0x0000000000002b4c       0x48 c:/program files/microchip/xc32/v4.35/bin/bin/../../lib/gcc/pic32mx/8.3.1/../../../../pic32mx/lib/fpu64\libc-musl.a(__fwrite.o)
 .debug_frame   0x0000000000002b94       0x20 c:/program files/microchip/xc32/v4.35/bin/bin/../../lib/gcc/pic32mx/8.3.1/fpu64\libgcc.a(_lshrdi3.o)
 .debug_frame   0x0000000000002bb4       0x20 c:/program files/microchip/xc32/v4.35/bin/bin/../../lib/gcc/pic32mx/8.3.1/fpu64\libgcc.a(_ashldi3.o)
 .debug_frame   0x0000000000002bd4       0x20 c:/program files/microchip/xc32/v4.35/bin/bin/../../lib/gcc/pic32mx/8.3.1/fpu64\libgcc.a(_udivdi3.o)
 .debug_frame   0x0000000000002bf4       0x20 c:/program files/microchip/xc32/v4.35/bin/bin/../../lib/gcc/pic32mx/8.3.1/fpu64\libgcc.a(_umoddi3.o)
 .debug_frame   0x0000000000002c14       0x9c c:/program files/microchip/xc32/v4.35/bin/bin/../../lib/gcc/pic32mx/8.3.1/../../../../pic32mx/lib/fpu64\libpic32.a(sbrk.o)
 .debug_frame   0x0000000000002cb0       0x20 c:/program files/microchip/xc32/v4.35/bin/bin/../../lib/gcc/pic32mx/8.3.1/../../../../pic32mx/lib/fpu64\libpic32.a(lseek.o)
 .debug_frame   0x0000000000002cd0       0x20 c:/program files/microchip/xc32/v4.35/bin/bin/../../lib/gcc/pic32mx/8.3.1/../../../../pic32mx/lib/fpu64\libpic32.a(close.o)

.debug_str      0x0000000000000000    0x1b0ea
 *.elf(.debug_str)
 *(.debug_str)
 .debug_str     0x0000000000000000      0x36b c:/program files/microchip/xc32/v4.35/bin/bin/../../lib/gcc/pic32mx/8.3.1/../../../../pic32mx/lib/fpu64\software-debug-break.o
 .debug_str     0x000000000000036b      0xa3c build/Config_2/debug/_ext/1982400153/plib_adchs.o
 .debug_str     0x0000000000000da7      0xaae build/Config_2/debug/_ext/1984168316/plib_canfd1.o
 .debug_str     0x0000000000001855      0xb27 build/Config_2/debug/_ext/1984168316/plib_canfd3.o
 .debug_str     0x000000000000237c      0xb27 build/Config_2/debug/_ext/1984168316/plib_canfd2.o
 .debug_str     0x0000000000002ea3      0xb27 build/Config_2/debug/_ext/1984168316/plib_canfd4.o
 .debug_str     0x00000000000039ca      0x42e build/Config_2/debug/_ext/60165520/plib_clk.o
 .debug_str     0x0000000000003df8      0x534 build/Config_2/debug/_ext/1249264884/plib_coretimer.o
 .debug_str     0x000000000000432c      0x92f build/Config_2/debug/_ext/1865161661/plib_dmac.o
 .debug_str     0x0000000000004c5b      0x4e0 build/Config_2/debug/_ext/1865200349/plib_evic.o
 .debug_str     0x000000000000513b      0x5bb build/Config_2/debug/_ext/1865254177/plib_gpio.o
 .debug_str     0x00000000000056f6      0x56f build/Config_2/debug/_ext/60181895/plib_tmr2.o
 .debug_str     0x0000000000005c65      0x566 build/Config_2/debug/_ext/60181895/plib_tmr4.o
 .debug_str     0x00000000000061cb      0x56f build/Config_2/debug/_ext/60181895/plib_tmr3.o
 .debug_str     0x000000000000673a      0x577 build/Config_2/debug/_ext/60181895/plib_tmr6.o
 .debug_str     0x0000000000006cb1      0x566 build/Config_2/debug/_ext/60181895/plib_tmr5.o
 .debug_str     0x0000000000007217      0x572 build/Config_2/debug/_ext/1865638794/plib_tmr1.o
 .debug_str     0x0000000000007789      0x591 build/Config_2/debug/_ext/1865657120/plib_uart1.o
 .debug_str     0x0000000000007d1a      0x591 build/Config_2/debug/_ext/1865657120/plib_uart3.o
 .debug_str     0x00000000000082ab      0x412 build/Config_2/debug/_ext/60184501/plib_wdt.o
 .debug_str     0x00000000000086bd      0x39b build/Config_2/debug/_ext/163028504/xc32_monitor.o
 .debug_str     0x0000000000008a58      0x55c build/Config_2/debug/_ext/1171490990/initialization.o
 .debug_str     0x0000000000008fb4      0x516 build/Config_2/debug/_ext/1171490990/interrupts.o
 .debug_str     0x00000000000094ca      0x3a9 build/Config_2/debug/_ext/1171490990/exceptions.o
 .debug_str     0x0000000000009873      0xdd0 build/Config_2/debug/_ext/1360937237/main.o
 .debug_str     0x000000000000a643      0x5d9 build/Config_2/debug/APPS.o
 .debug_str     0x000000000000ac1c      0xd2a build/Config_2/debug/CAN_utils.o
 .debug_str     0x000000000000b946      0x4ca build/Config_2/debug/_ext/772537440/cansart.o
 .debug_str     0x000000000000be10      0x42c build/Config_2/debug/_ext/772537440/cansartP.o
 .debug_str     0x000000000000c23c      0x36f build/Config_2/debug/TorqueControl.o
 .debug_str     0x000000000000c5ab       0xb9 C:\Users\pedro\AppData\Local\Temp\ccPLik8y.o
 .debug_str     0x000000000000c664      0x355 c:/program files/microchip/xc32/v4.35/bin/bin/../../lib/gcc/pic32mx/8.3.1/../../../../pic32mx/lib/fpu64\libpic32.a(default-on-reset.o)
 .debug_str     0x000000000000c9b9      0x35d c:/program files/microchip/xc32/v4.35/bin/bin/../../lib/gcc/pic32mx/8.3.1/../../../../pic32mx/lib/fpu64\libpic32.a(default-on-bootstrap.o)
 .debug_str     0x000000000000cd16      0x36f c:/program files/microchip/xc32/v4.35/bin/bin/../../lib/gcc/pic32mx/8.3.1/../../../../pic32mx/lib/fpu64\libpic32.a(defaultinterrupt.o)
 .debug_str     0x000000000000d085      0x3f0 c:/program files/microchip/xc32/v4.35/bin/bin/../../lib/gcc/pic32mx/8.3.1/../../../../pic32mx/lib/fpu64\libc-musl.a(__sio_printf_dn.o)
 .debug_str     0x000000000000d475      0x3e2 c:/program files/microchip/xc32/v4.35/bin/bin/../../lib/gcc/pic32mx/8.3.1/../../../../pic32mx/lib/fpu64\libc-musl.a(__fmt_d.o)
 .debug_str     0x000000000000d857      0x3bb c:/program files/microchip/xc32/v4.35/bin/bin/../../lib/gcc/pic32mx/8.3.1/../../../../pic32mx/lib/fpu64\libc-musl.a(__pop_int.o)
 .debug_str     0x000000000000dc12      0x3bd c:/program files/microchip/xc32/v4.35/bin/bin/../../lib/gcc/pic32mx/8.3.1/../../../../pic32mx/lib/fpu64\libc-musl.a(__pop_ptr.o)
 .debug_str     0x000000000000dfcf      0x4d1 c:/program files/microchip/xc32/v4.35/bin/bin/../../lib/gcc/pic32mx/8.3.1/../../../../pic32mx/lib/fpu64\libc-musl.a(__printf_core.o)
 .debug_str     0x000000000000e4a0      0x3ee c:/program files/microchip/xc32/v4.35/bin/bin/../../lib/gcc/pic32mx/8.3.1/../../../../pic32mx/lib/fpu64\libc-musl.a(fflush.o)
 .debug_str     0x000000000000e88e      0x463 c:/program files/microchip/xc32/v4.35/bin/bin/../../lib/gcc/pic32mx/8.3.1/../../../../pic32mx/lib/fpu64\libc-musl.a(stdin.o)
 .debug_str     0x000000000000ecf1      0x487 c:/program files/microchip/xc32/v4.35/bin/bin/../../lib/gcc/pic32mx/8.3.1/../../../../pic32mx/lib/fpu64\libc-musl.a(stdout.o)
 .debug_str     0x000000000000f178      0x431 c:/program files/microchip/xc32/v4.35/bin/bin/../../lib/gcc/pic32mx/8.3.1/../../../../pic32mx/lib/fpu64\libc-musl.a(puts.o)
 .debug_str     0x000000000000f5a9      0x31c c:/program files/microchip/xc32/v4.35/bin/bin/../../lib/gcc/pic32mx/8.3.1/../../../../pic32mx/lib/fpu64\libc-musl.a(setbuf.o)
 .debug_str     0x000000000000f8c5      0x31b c:/program files/microchip/xc32/v4.35/bin/bin/../../lib/gcc/pic32mx/8.3.1/../../../../pic32mx/lib/fpu64\libc-musl.a(atoi.o)
 .debug_str     0x000000000000fbe0      0x328 c:/program files/microchip/xc32/v4.35/bin/bin/../../lib/gcc/pic32mx/8.3.1/../../../../pic32mx/lib/fpu64\libc-musl.a(memcpy.o)
 .debug_str     0x000000000000ff08      0x31a c:/program files/microchip/xc32/v4.35/bin/bin/../../lib/gcc/pic32mx/8.3.1/../../../../pic32mx/lib/fpu64\libc-musl.a(strlen.o)
 .debug_str     0x0000000000010222      0x348 c:/program files/microchip/xc32/v4.35/bin/bin/../../lib/gcc/pic32mx/8.3.1/../../../../pic32mx/lib/fpu64\libc-musl.a(tolower.o)
 .debug_str     0x000000000001056a      0x3d9 c:/program files/microchip/xc32/v4.35/bin/bin/../../lib/gcc/pic32mx/8.3.1/../../../../pic32mx/lib/fpu64\libc-musl.a(__int_vfprintf.o)
 .debug_str     0x0000000000010943      0x425 c:/program files/microchip/xc32/v4.35/bin/bin/../../lib/gcc/pic32mx/8.3.1/../../../../pic32mx/lib/fpu64\libc-musl.a(fputs.o)
 .debug_str     0x0000000000010d68      0x39e c:/program files/microchip/xc32/v4.35/bin/bin/../../lib/gcc/pic32mx/8.3.1/../../../../pic32mx/lib/fpu64\libc-musl.a(__cvt_u.o)
 .debug_str     0x0000000000011106      0x3c1 c:/program files/microchip/xc32/v4.35/bin/bin/../../lib/gcc/pic32mx/8.3.1/../../../../pic32mx/lib/fpu64\libc-musl.a(__io_init_needed.o)
 .debug_str     0x00000000000114c7      0x3d0 c:/program files/microchip/xc32/v4.35/bin/bin/../../lib/gcc/pic32mx/8.3.1/../../../../pic32mx/lib/fpu64\libc-musl.a(__io_rw_needed.o)
 .debug_str     0x0000000000011897      0x3c7 c:/program files/microchip/xc32/v4.35/bin/bin/../../lib/gcc/pic32mx/8.3.1/../../../../pic32mx/lib/fpu64\libc-musl.a(__out.o)
 .debug_str     0x0000000000011c5e      0x3b0 c:/program files/microchip/xc32/v4.35/bin/bin/../../lib/gcc/pic32mx/8.3.1/../../../../pic32mx/lib/fpu64\libc-musl.a(__pop_float.o)
 .debug_str     0x000000000001200e      0x44a c:/program files/microchip/xc32/v4.35/bin/bin/../../lib/gcc/pic32mx/8.3.1/../../../../pic32mx/lib/fpu64\libc-musl.a(__stdio_close.o)
 .debug_str     0x0000000000012458      0x44f c:/program files/microchip/xc32/v4.35/bin/bin/../../lib/gcc/pic32mx/8.3.1/../../../../pic32mx/lib/fpu64\libc-musl.a(__stdio_read.o)
 .debug_str     0x00000000000128a7      0x42a c:/program files/microchip/xc32/v4.35/bin/bin/../../lib/gcc/pic32mx/8.3.1/../../../../pic32mx/lib/fpu64\libc-musl.a(__towrite_rw.o)
 .debug_str     0x0000000000012cd1      0x3c0 c:/program files/microchip/xc32/v4.35/bin/bin/../../lib/gcc/pic32mx/8.3.1/../../../../pic32mx/lib/fpu64\libc-musl.a(fwrite.o)
 .debug_str     0x0000000000013091      0x3d7 c:/program files/microchip/xc32/v4.35/bin/bin/../../lib/gcc/pic32mx/8.3.1/../../../../pic32mx/lib/fpu64\libc-musl.a(putc.o)
 .debug_str     0x0000000000013468      0x3ff c:/program files/microchip/xc32/v4.35/bin/bin/../../lib/gcc/pic32mx/8.3.1/../../../../pic32mx/lib/fpu64\libc-musl.a(setvbuf.o)
 .debug_str     0x0000000000013867      0x34b c:/program files/microchip/xc32/v4.35/bin/bin/../../lib/gcc/pic32mx/8.3.1/../../../../pic32mx/lib/fpu64\libc-musl.a(readv.o)
 .debug_str     0x0000000000013bb2      0x593 c:/program files/microchip/xc32/v4.35/bin/bin/../../lib/gcc/pic32mx/8.3.1/../../../../pic32mx/lib/fpu64\libc-musl.a(malloc.o)
 .debug_str     0x0000000000014145      0x392 c:/program files/microchip/xc32/v4.35/bin/bin/../../lib/gcc/pic32mx/8.3.1/../../../../pic32mx/lib/fpu64\libc-musl.a(expand_heap.o)
 .debug_str     0x00000000000144d7      0x442 c:/program files/microchip/xc32/v4.35/bin/bin/../../lib/gcc/pic32mx/8.3.1/../../../../pic32mx/lib/fpu64\libc-musl.a(__fopen_rw.o)
 .debug_str     0x0000000000014919      0x42c c:/program files/microchip/xc32/v4.35/bin/bin/../../lib/gcc/pic32mx/8.3.1/../../../../pic32mx/lib/fpu64\libc-musl.a(__ftello_rw.o)
 .debug_str     0x0000000000014d45      0x387 c:/program files/microchip/xc32/v4.35/bin/bin/../../lib/gcc/pic32mx/8.3.1/../../../../pic32mx/lib/fpu64\libc-musl.a(__init_stdio.o)
 .debug_str     0x00000000000150cc      0x3fc c:/program files/microchip/xc32/v4.35/bin/bin/../../lib/gcc/pic32mx/8.3.1/../../../../pic32mx/lib/fpu64\libc-musl.a(__io_buf_needed.o)
 .debug_str     0x00000000000154c8      0x394 c:/program files/microchip/xc32/v4.35/bin/bin/../../lib/gcc/pic32mx/8.3.1/../../../../pic32mx/lib/fpu64\libc-musl.a(__io_file_needed.o)
 .debug_str     0x000000000001585c      0x3f0 c:/program files/microchip/xc32/v4.35/bin/bin/../../lib/gcc/pic32mx/8.3.1/../../../../pic32mx/lib/fpu64\libc-musl.a(__io_std_needed.o)
 .debug_str     0x0000000000015c4c      0x3e5 c:/program files/microchip/xc32/v4.35/bin/bin/../../lib/gcc/pic32mx/8.3.1/../../../../pic32mx/lib/fpu64\libc-musl.a(__putc.o)
 .debug_str     0x0000000000016031      0x45a c:/program files/microchip/xc32/v4.35/bin/bin/../../lib/gcc/pic32mx/8.3.1/../../../../pic32mx/lib/fpu64\libc-musl.a(__stderr.o)
 .debug_str     0x000000000001648b      0x419 c:/program files/microchip/xc32/v4.35/bin/bin/../../lib/gcc/pic32mx/8.3.1/../../../../pic32mx/lib/fpu64\libc-musl.a(__stdio_exit.o)
 .debug_str     0x00000000000168a4      0x433 c:/program files/microchip/xc32/v4.35/bin/bin/../../lib/gcc/pic32mx/8.3.1/../../../../pic32mx/lib/fpu64\libc-musl.a(__stdio_write.o)
 .debug_str     0x0000000000016cd7      0x45a c:/program files/microchip/xc32/v4.35/bin/bin/../../lib/gcc/pic32mx/8.3.1/../../../../pic32mx/lib/fpu64\libc-musl.a(__stdout.o)
 .debug_str     0x0000000000017131      0x3d6 c:/program files/microchip/xc32/v4.35/bin/bin/../../lib/gcc/pic32mx/8.3.1/../../../../pic32mx/lib/fpu64\libc-musl.a(__towrite.o)
 .debug_str     0x0000000000017507      0x34e c:/program files/microchip/xc32/v4.35/bin/bin/../../lib/gcc/pic32mx/8.3.1/../../../../pic32mx/lib/fpu64\libc-musl.a(writev.o)
 .debug_str     0x0000000000017855      0x434 c:/program files/microchip/xc32/v4.35/bin/bin/../../lib/gcc/pic32mx/8.3.1/../../../../pic32mx/lib/fpu64\libc-musl.a(libc.o)
 .debug_str     0x0000000000017c89      0x42b c:/program files/microchip/xc32/v4.35/bin/bin/../../lib/gcc/pic32mx/8.3.1/../../../../pic32mx/lib/fpu64\libc-musl.a(__overflow.o)
 .debug_str     0x00000000000180b4      0x3b6 c:/program files/microchip/xc32/v4.35/bin/bin/../../lib/gcc/pic32mx/8.3.1/../../../../pic32mx/lib/fpu64\libc-musl.a(__fclose.o)
 .debug_str     0x000000000001846a      0x3f3 c:/program files/microchip/xc32/v4.35/bin/bin/../../lib/gcc/pic32mx/8.3.1/../../../../pic32mx/lib/fpu64\libc-musl.a(__fopen.o)
 .debug_str     0x000000000001885d      0x3d3 c:/program files/microchip/xc32/v4.35/bin/bin/../../lib/gcc/pic32mx/8.3.1/../../../../pic32mx/lib/fpu64\libc-musl.a(__fseeko.o)
 .debug_str     0x0000000000018c30      0x3d8 c:/program files/microchip/xc32/v4.35/bin/bin/../../lib/gcc/pic32mx/8.3.1/../../../../pic32mx/lib/fpu64\libc-musl.a(__ftello.o)
 .debug_str     0x0000000000019008      0x3ef c:/program files/microchip/xc32/v4.35/bin/bin/../../lib/gcc/pic32mx/8.3.1/../../../../pic32mx/lib/fpu64\libc-musl.a(__fwrite.o)
 .debug_str     0x00000000000193f7      0x3ce c:/program files/microchip/xc32/v4.35/bin/bin/../../lib/gcc/pic32mx/8.3.1/fpu64\libgcc.a(_lshrdi3.o)
 .debug_str     0x00000000000197c5      0x3ce c:/program files/microchip/xc32/v4.35/bin/bin/../../lib/gcc/pic32mx/8.3.1/fpu64\libgcc.a(_ashldi3.o)
 .debug_str     0x0000000000019b93      0x40b c:/program files/microchip/xc32/v4.35/bin/bin/../../lib/gcc/pic32mx/8.3.1/fpu64\libgcc.a(_udivdi3.o)
 .debug_str     0x0000000000019f9e      0x40b c:/program files/microchip/xc32/v4.35/bin/bin/../../lib/gcc/pic32mx/8.3.1/fpu64\libgcc.a(_umoddi3.o)
 .debug_str     0x000000000001a3a9      0x375 c:/program files/microchip/xc32/v4.35/bin/bin/../../lib/gcc/pic32mx/8.3.1/../../../../pic32mx/lib/fpu64\libpic32.a(sbrk.o)
 .debug_str     0x000000000001a71e      0x346 c:/program files/microchip/xc32/v4.35/bin/bin/../../lib/gcc/pic32mx/8.3.1/../../../../pic32mx/lib/fpu64\libpic32.a(lseek.o)
 .debug_str     0x000000000001aa64      0x346 c:/program files/microchip/xc32/v4.35/bin/bin/../../lib/gcc/pic32mx/8.3.1/../../../../pic32mx/lib/fpu64\libpic32.a(close.o)
 .debug_str     0x000000000001adaa      0x340 c:/program files/microchip/xc32/v4.35/bin/bin/../../lib/gcc/pic32mx/8.3.1/../../../../pic32mx/lib/fpu64\libpic32.a(errno.o)

.debug_loc      0x0000000000000000     0xac7f
 *.elf(.debug_loc)
 *(.debug_loc)
 .debug_loc     0x0000000000000000      0x23c build/Config_2/debug/_ext/1982400153/plib_adchs.o
 .debug_loc     0x000000000000023c      0xa4d build/Config_2/debug/_ext/1984168316/plib_canfd1.o
 .debug_loc     0x0000000000000c89      0xa9b build/Config_2/debug/_ext/1984168316/plib_canfd3.o
 .debug_loc     0x0000000000001724      0xa9b build/Config_2/debug/_ext/1984168316/plib_canfd2.o
 .debug_loc     0x00000000000021bf      0xa9b build/Config_2/debug/_ext/1984168316/plib_canfd4.o
 .debug_loc     0x0000000000002c5a      0x1fd build/Config_2/debug/_ext/1249264884/plib_coretimer.o
 .debug_loc     0x0000000000002e57      0xbf1 build/Config_2/debug/_ext/1865161661/plib_dmac.o
 .debug_loc     0x0000000000003a48      0x17d build/Config_2/debug/_ext/1865200349/plib_evic.o
 .debug_loc     0x0000000000003bc5      0x172 build/Config_2/debug/_ext/1865254177/plib_gpio.o
 .debug_loc     0x0000000000003d37       0x15 build/Config_2/debug/_ext/60181895/plib_tmr2.o
 .debug_loc     0x0000000000003d4c       0x15 build/Config_2/debug/_ext/60181895/plib_tmr4.o
 .debug_loc     0x0000000000003d61       0x15 build/Config_2/debug/_ext/60181895/plib_tmr3.o
 .debug_loc     0x0000000000003d76       0x15 build/Config_2/debug/_ext/60181895/plib_tmr6.o
 .debug_loc     0x0000000000003d8b       0x15 build/Config_2/debug/_ext/60181895/plib_tmr5.o
 .debug_loc     0x0000000000003da0       0x15 build/Config_2/debug/_ext/1865638794/plib_tmr1.o
 .debug_loc     0x0000000000003db5      0x574 build/Config_2/debug/_ext/1865657120/plib_uart1.o
 .debug_loc     0x0000000000004329      0x574 build/Config_2/debug/_ext/1865657120/plib_uart3.o
 .debug_loc     0x000000000000489d      0x1d5 build/Config_2/debug/_ext/163028504/xc32_monitor.o
 .debug_loc     0x0000000000004a72       0x51 build/Config_2/debug/_ext/1171490990/initialization.o
 .debug_loc     0x0000000000004ac3      0x1ef build/Config_2/debug/_ext/1171490990/interrupts.o
 .debug_loc     0x0000000000004cb2       0x20 build/Config_2/debug/_ext/1171490990/exceptions.o
 .debug_loc     0x0000000000004cd2      0x59a build/Config_2/debug/_ext/1360937237/main.o
 .debug_loc     0x000000000000526c      0x54c build/Config_2/debug/APPS.o
 .debug_loc     0x00000000000057b8      0x93d build/Config_2/debug/CAN_utils.o
 .debug_loc     0x00000000000060f5      0x567 build/Config_2/debug/_ext/772537440/cansart.o
 .debug_loc     0x000000000000665c      0x468 build/Config_2/debug/_ext/772537440/cansartP.o
 .debug_loc     0x0000000000006ac4      0x11d build/Config_2/debug/TorqueControl.o
 .debug_loc     0x0000000000006be1       0x47 c:/program files/microchip/xc32/v4.35/bin/bin/../../lib/gcc/pic32mx/8.3.1/../../../../pic32mx/lib/fpu64\libc-musl.a(__sio_printf_dn.o)
 .debug_loc     0x0000000000006c28      0x241 c:/program files/microchip/xc32/v4.35/bin/bin/../../lib/gcc/pic32mx/8.3.1/../../../../pic32mx/lib/fpu64\libc-musl.a(__fmt_d.o)
 .debug_loc     0x0000000000006e69       0x40 c:/program files/microchip/xc32/v4.35/bin/bin/../../lib/gcc/pic32mx/8.3.1/../../../../pic32mx/lib/fpu64\libc-musl.a(__pop_ptr.o)
 .debug_loc     0x0000000000006ea9      0x56c c:/program files/microchip/xc32/v4.35/bin/bin/../../lib/gcc/pic32mx/8.3.1/../../../../pic32mx/lib/fpu64\libc-musl.a(__printf_core.o)
 .debug_loc     0x0000000000007415       0x64 c:/program files/microchip/xc32/v4.35/bin/bin/../../lib/gcc/pic32mx/8.3.1/../../../../pic32mx/lib/fpu64\libc-musl.a(fflush.o)
 .debug_loc     0x0000000000007479       0x4a c:/program files/microchip/xc32/v4.35/bin/bin/../../lib/gcc/pic32mx/8.3.1/../../../../pic32mx/lib/fpu64\libc-musl.a(puts.o)
 .debug_loc     0x00000000000074c3       0x4a c:/program files/microchip/xc32/v4.35/bin/bin/../../lib/gcc/pic32mx/8.3.1/../../../../pic32mx/lib/fpu64\libc-musl.a(setbuf.o)
 .debug_loc     0x000000000000750d       0xbe c:/program files/microchip/xc32/v4.35/bin/bin/../../lib/gcc/pic32mx/8.3.1/../../../../pic32mx/lib/fpu64\libc-musl.a(atoi.o)
 .debug_loc     0x00000000000075cb       0xd6 c:/program files/microchip/xc32/v4.35/bin/bin/../../lib/gcc/pic32mx/8.3.1/../../../../pic32mx/lib/fpu64\libc-musl.a(memcpy.o)
 .debug_loc     0x00000000000076a1       0x44 c:/program files/microchip/xc32/v4.35/bin/bin/../../lib/gcc/pic32mx/8.3.1/../../../../pic32mx/lib/fpu64\libc-musl.a(strlen.o)
 .debug_loc     0x00000000000076e5       0x9f c:/program files/microchip/xc32/v4.35/bin/bin/../../lib/gcc/pic32mx/8.3.1/../../../../pic32mx/lib/fpu64\libc-musl.a(__int_vfprintf.o)
 .debug_loc     0x0000000000007784       0x86 c:/program files/microchip/xc32/v4.35/bin/bin/../../lib/gcc/pic32mx/8.3.1/../../../../pic32mx/lib/fpu64\libc-musl.a(fputs.o)
 .debug_loc     0x000000000000780a      0x1fe c:/program files/microchip/xc32/v4.35/bin/bin/../../lib/gcc/pic32mx/8.3.1/../../../../pic32mx/lib/fpu64\libc-musl.a(__cvt_u.o)
 .debug_loc     0x0000000000007a08      0x1ab c:/program files/microchip/xc32/v4.35/bin/bin/../../lib/gcc/pic32mx/8.3.1/../../../../pic32mx/lib/fpu64\libc-musl.a(__out.o)
 .debug_loc     0x0000000000007bb3      0x130 c:/program files/microchip/xc32/v4.35/bin/bin/../../lib/gcc/pic32mx/8.3.1/../../../../pic32mx/lib/fpu64\libc-musl.a(__stdio_close.o)
 .debug_loc     0x0000000000007ce3       0xe7 c:/program files/microchip/xc32/v4.35/bin/bin/../../lib/gcc/pic32mx/8.3.1/../../../../pic32mx/lib/fpu64\libc-musl.a(__stdio_read.o)
 .debug_loc     0x0000000000007dca      0x19f c:/program files/microchip/xc32/v4.35/bin/bin/../../lib/gcc/pic32mx/8.3.1/../../../../pic32mx/lib/fpu64\libc-musl.a(fwrite.o)
 .debug_loc     0x0000000000007f69       0xdb c:/program files/microchip/xc32/v4.35/bin/bin/../../lib/gcc/pic32mx/8.3.1/../../../../pic32mx/lib/fpu64\libc-musl.a(putc.o)
 .debug_loc     0x0000000000008044      0x15f c:/program files/microchip/xc32/v4.35/bin/bin/../../lib/gcc/pic32mx/8.3.1/../../../../pic32mx/lib/fpu64\libc-musl.a(setvbuf.o)
 .debug_loc     0x00000000000081a3      0x12c c:/program files/microchip/xc32/v4.35/bin/bin/../../lib/gcc/pic32mx/8.3.1/../../../../pic32mx/lib/fpu64\libc-musl.a(readv.o)
 .debug_loc     0x00000000000082cf      0xbe0 c:/program files/microchip/xc32/v4.35/bin/bin/../../lib/gcc/pic32mx/8.3.1/../../../../pic32mx/lib/fpu64\libc-musl.a(malloc.o)
 .debug_loc     0x0000000000008eaf       0x4f c:/program files/microchip/xc32/v4.35/bin/bin/../../lib/gcc/pic32mx/8.3.1/../../../../pic32mx/lib/fpu64\libc-musl.a(expand_heap.o)
 .debug_loc     0x0000000000008efe       0x2f c:/program files/microchip/xc32/v4.35/bin/bin/../../lib/gcc/pic32mx/8.3.1/../../../../pic32mx/lib/fpu64\libc-musl.a(__fopen_rw.o)
 .debug_loc     0x0000000000008f2d       0x25 c:/program files/microchip/xc32/v4.35/bin/bin/../../lib/gcc/pic32mx/8.3.1/../../../../pic32mx/lib/fpu64\libc-musl.a(__ftello_rw.o)
 .debug_loc     0x0000000000008f52       0x9e c:/program files/microchip/xc32/v4.35/bin/bin/../../lib/gcc/pic32mx/8.3.1/../../../../pic32mx/lib/fpu64\libc-musl.a(__putc.o)
 .debug_loc     0x0000000000008ff0      0x366 c:/program files/microchip/xc32/v4.35/bin/bin/../../lib/gcc/pic32mx/8.3.1/../../../../pic32mx/lib/fpu64\libc-musl.a(__stdio_write.o)
 .debug_loc     0x0000000000009356       0x47 c:/program files/microchip/xc32/v4.35/bin/bin/../../lib/gcc/pic32mx/8.3.1/../../../../pic32mx/lib/fpu64\libc-musl.a(__towrite.o)
 .debug_loc     0x000000000000939d      0x12c c:/program files/microchip/xc32/v4.35/bin/bin/../../lib/gcc/pic32mx/8.3.1/../../../../pic32mx/lib/fpu64\libc-musl.a(writev.o)
 .debug_loc     0x00000000000094c9       0x9b c:/program files/microchip/xc32/v4.35/bin/bin/../../lib/gcc/pic32mx/8.3.1/../../../../pic32mx/lib/fpu64\libc-musl.a(__overflow.o)
 .debug_loc     0x0000000000009564       0x64 c:/program files/microchip/xc32/v4.35/bin/bin/../../lib/gcc/pic32mx/8.3.1/../../../../pic32mx/lib/fpu64\libc-musl.a(__fclose.o)
 .debug_loc     0x00000000000095c8       0x2f c:/program files/microchip/xc32/v4.35/bin/bin/../../lib/gcc/pic32mx/8.3.1/../../../../pic32mx/lib/fpu64\libc-musl.a(__fopen.o)
 .debug_loc     0x00000000000095f7       0x6f c:/program files/microchip/xc32/v4.35/bin/bin/../../lib/gcc/pic32mx/8.3.1/../../../../pic32mx/lib/fpu64\libc-musl.a(__fseeko.o)
 .debug_loc     0x0000000000009666       0x4a c:/program files/microchip/xc32/v4.35/bin/bin/../../lib/gcc/pic32mx/8.3.1/../../../../pic32mx/lib/fpu64\libc-musl.a(__ftello.o)
 .debug_loc     0x00000000000096b0       0xc6 c:/program files/microchip/xc32/v4.35/bin/bin/../../lib/gcc/pic32mx/8.3.1/../../../../pic32mx/lib/fpu64\libc-musl.a(__fwrite.o)
 .debug_loc     0x0000000000009776       0x99 c:/program files/microchip/xc32/v4.35/bin/bin/../../lib/gcc/pic32mx/8.3.1/fpu64\libgcc.a(_lshrdi3.o)
 .debug_loc     0x000000000000980f       0x75 c:/program files/microchip/xc32/v4.35/bin/bin/../../lib/gcc/pic32mx/8.3.1/fpu64\libgcc.a(_ashldi3.o)
 .debug_loc     0x0000000000009884      0x9f5 c:/program files/microchip/xc32/v4.35/bin/bin/../../lib/gcc/pic32mx/8.3.1/fpu64\libgcc.a(_udivdi3.o)
 .debug_loc     0x000000000000a279      0x99a c:/program files/microchip/xc32/v4.35/bin/bin/../../lib/gcc/pic32mx/8.3.1/fpu64\libgcc.a(_umoddi3.o)
 .debug_loc     0x000000000000ac13       0x6c c:/program files/microchip/xc32/v4.35/bin/bin/../../lib/gcc/pic32mx/8.3.1/../../../../pic32mx/lib/fpu64\libpic32.a(sbrk.o)

.debug_macinfo
 *.elf(.debug_macinfo)
 *(.debug_macinfo)

.debug_weaknames
 *.elf(.debug_weaknames)
 *(.debug_weaknames)

.debug_funcnames
 *.elf(.debug_funcnames)
 *(.debug_funcnames)

.debug_typenames
 *.elf(.debug_typenames)
 *(.debug_typenames)

.debug_varnames
 *.elf(.debug_varnames)
 *(.debug_varnames)

.debug_pubtypes
 *.elf(.debug_pubtypes)
 *(.debug_pubtypes)

.debug_ranges   0x0000000000000000     0x18b8
 *.elf(.debug_ranges)
 *(.debug_ranges)
 .debug_ranges  0x0000000000000000       0x10 c:/program files/microchip/xc32/v4.35/bin/bin/../../lib/gcc/pic32mx/8.3.1/../../../../pic32mx/lib/fpu64\software-debug-break.o
 .debug_ranges  0x0000000000000010      0x120 build/Config_2/debug/_ext/1982400153/plib_adchs.o
 .debug_ranges  0x0000000000000130       0x98 build/Config_2/debug/_ext/1984168316/plib_canfd1.o
 .debug_ranges  0x00000000000001c8       0xa0 build/Config_2/debug/_ext/1984168316/plib_canfd3.o
 .debug_ranges  0x0000000000000268       0xa0 build/Config_2/debug/_ext/1984168316/plib_canfd2.o
 .debug_ranges  0x0000000000000308       0xa0 build/Config_2/debug/_ext/1984168316/plib_canfd4.o
 .debug_ranges  0x00000000000003a8       0x10 build/Config_2/debug/_ext/60165520/plib_clk.o
 .debug_ranges  0x00000000000003b8       0x50 build/Config_2/debug/_ext/1249264884/plib_coretimer.o
 .debug_ranges  0x0000000000000408       0x78 build/Config_2/debug/_ext/1865161661/plib_dmac.o
 .debug_ranges  0x0000000000000480       0x58 build/Config_2/debug/_ext/1865200349/plib_evic.o
 .debug_ranges  0x00000000000004d8       0x50 build/Config_2/debug/_ext/1865254177/plib_gpio.o
 .debug_ranges  0x0000000000000528       0x60 build/Config_2/debug/_ext/60181895/plib_tmr2.o
 .debug_ranges  0x0000000000000588       0x60 build/Config_2/debug/_ext/60181895/plib_tmr4.o
 .debug_ranges  0x00000000000005e8       0x60 build/Config_2/debug/_ext/60181895/plib_tmr3.o
 .debug_ranges  0x0000000000000648       0x60 build/Config_2/debug/_ext/60181895/plib_tmr6.o
 .debug_ranges  0x00000000000006a8       0x60 build/Config_2/debug/_ext/60181895/plib_tmr5.o
 .debug_ranges  0x0000000000000708       0x60 build/Config_2/debug/_ext/1865638794/plib_tmr1.o
 .debug_ranges  0x0000000000000768       0xa8 build/Config_2/debug/_ext/1865657120/plib_uart1.o
 .debug_ranges  0x0000000000000810       0xa8 build/Config_2/debug/_ext/1865657120/plib_uart3.o
 .debug_ranges  0x00000000000008b8       0x40 build/Config_2/debug/_ext/60184501/plib_wdt.o
 .debug_ranges  0x00000000000008f8       0x18 build/Config_2/debug/_ext/163028504/xc32_monitor.o
 .debug_ranges  0x0000000000000910       0x10 build/Config_2/debug/_ext/1171490990/initialization.o
 .debug_ranges  0x0000000000000920       0x60 build/Config_2/debug/_ext/1171490990/interrupts.o
 .debug_ranges  0x0000000000000980       0x10 build/Config_2/debug/_ext/1171490990/exceptions.o
 .debug_ranges  0x0000000000000990      0x250 build/Config_2/debug/_ext/1360937237/main.o
 .debug_ranges  0x0000000000000be0      0x238 build/Config_2/debug/APPS.o
 .debug_ranges  0x0000000000000e18       0xd0 build/Config_2/debug/CAN_utils.o
 .debug_ranges  0x0000000000000ee8       0x90 build/Config_2/debug/_ext/772537440/cansart.o
 .debug_ranges  0x0000000000000f78       0x30 build/Config_2/debug/_ext/772537440/cansartP.o
 .debug_ranges  0x0000000000000fa8       0x20 build/Config_2/debug/TorqueControl.o
 .debug_ranges  0x0000000000000fc8       0x38 C:\Users\pedro\AppData\Local\Temp\ccPLik8y.o
 .debug_ranges  0x0000000000001000       0x10 c:/program files/microchip/xc32/v4.35/bin/bin/../../lib/gcc/pic32mx/8.3.1/../../../../pic32mx/lib/fpu64\libpic32.a(default-on-reset.o)
 .debug_ranges  0x0000000000001010       0x10 c:/program files/microchip/xc32/v4.35/bin/bin/../../lib/gcc/pic32mx/8.3.1/../../../../pic32mx/lib/fpu64\libpic32.a(default-on-bootstrap.o)
 .debug_ranges  0x0000000000001020       0x10 c:/program files/microchip/xc32/v4.35/bin/bin/../../lib/gcc/pic32mx/8.3.1/../../../../pic32mx/lib/fpu64\libpic32.a(defaultinterrupt.o)
 .debug_ranges  0x0000000000001030       0x18 c:/program files/microchip/xc32/v4.35/bin/bin/../../lib/gcc/pic32mx/8.3.1/../../../../pic32mx/lib/fpu64\libc-musl.a(__sio_printf_dn.o)
 .debug_ranges  0x0000000000001048       0x10 c:/program files/microchip/xc32/v4.35/bin/bin/../../lib/gcc/pic32mx/8.3.1/../../../../pic32mx/lib/fpu64\libc-musl.a(__fmt_d.o)
 .debug_ranges  0x0000000000001058       0x10 c:/program files/microchip/xc32/v4.35/bin/bin/../../lib/gcc/pic32mx/8.3.1/../../../../pic32mx/lib/fpu64\libc-musl.a(__pop_int.o)
 .debug_ranges  0x0000000000001068       0x10 c:/program files/microchip/xc32/v4.35/bin/bin/../../lib/gcc/pic32mx/8.3.1/../../../../pic32mx/lib/fpu64\libc-musl.a(__pop_ptr.o)
 .debug_ranges  0x0000000000001078       0xe8 c:/program files/microchip/xc32/v4.35/bin/bin/../../lib/gcc/pic32mx/8.3.1/../../../../pic32mx/lib/fpu64\libc-musl.a(__printf_core.o)
 .debug_ranges  0x0000000000001160       0x20 c:/program files/microchip/xc32/v4.35/bin/bin/../../lib/gcc/pic32mx/8.3.1/../../../../pic32mx/lib/fpu64\libc-musl.a(fflush.o)
 .debug_ranges  0x0000000000001180       0x18 c:/program files/microchip/xc32/v4.35/bin/bin/../../lib/gcc/pic32mx/8.3.1/../../../../pic32mx/lib/fpu64\libc-musl.a(stdin.o)
 .debug_ranges  0x0000000000001198       0x20 c:/program files/microchip/xc32/v4.35/bin/bin/../../lib/gcc/pic32mx/8.3.1/../../../../pic32mx/lib/fpu64\libc-musl.a(stdout.o)
 .debug_ranges  0x00000000000011b8       0x10 c:/program files/microchip/xc32/v4.35/bin/bin/../../lib/gcc/pic32mx/8.3.1/../../../../pic32mx/lib/fpu64\libc-musl.a(puts.o)
 .debug_ranges  0x00000000000011c8       0x10 c:/program files/microchip/xc32/v4.35/bin/bin/../../lib/gcc/pic32mx/8.3.1/../../../../pic32mx/lib/fpu64\libc-musl.a(setbuf.o)
 .debug_ranges  0x00000000000011d8       0x28 c:/program files/microchip/xc32/v4.35/bin/bin/../../lib/gcc/pic32mx/8.3.1/../../../../pic32mx/lib/fpu64\libc-musl.a(atoi.o)
 .debug_ranges  0x0000000000001200       0x10 c:/program files/microchip/xc32/v4.35/bin/bin/../../lib/gcc/pic32mx/8.3.1/../../../../pic32mx/lib/fpu64\libc-musl.a(memcpy.o)
 .debug_ranges  0x0000000000001210       0x10 c:/program files/microchip/xc32/v4.35/bin/bin/../../lib/gcc/pic32mx/8.3.1/../../../../pic32mx/lib/fpu64\libc-musl.a(strlen.o)
 .debug_ranges  0x0000000000001220       0x18 c:/program files/microchip/xc32/v4.35/bin/bin/../../lib/gcc/pic32mx/8.3.1/../../../../pic32mx/lib/fpu64\libc-musl.a(tolower.o)
 .debug_ranges  0x0000000000001238       0x10 c:/program files/microchip/xc32/v4.35/bin/bin/../../lib/gcc/pic32mx/8.3.1/../../../../pic32mx/lib/fpu64\libc-musl.a(__int_vfprintf.o)
 .debug_ranges  0x0000000000001248       0x10 c:/program files/microchip/xc32/v4.35/bin/bin/../../lib/gcc/pic32mx/8.3.1/../../../../pic32mx/lib/fpu64\libc-musl.a(fputs.o)
 .debug_ranges  0x0000000000001258       0x10 c:/program files/microchip/xc32/v4.35/bin/bin/../../lib/gcc/pic32mx/8.3.1/../../../../pic32mx/lib/fpu64\libc-musl.a(__cvt_u.o)
 .debug_ranges  0x0000000000001268       0x18 c:/program files/microchip/xc32/v4.35/bin/bin/../../lib/gcc/pic32mx/8.3.1/../../../../pic32mx/lib/fpu64\libc-musl.a(__io_init_needed.o)
 .debug_ranges  0x0000000000001280       0x10 c:/program files/microchip/xc32/v4.35/bin/bin/../../lib/gcc/pic32mx/8.3.1/../../../../pic32mx/lib/fpu64\libc-musl.a(__io_rw_needed.o)
 .debug_ranges  0x0000000000001290       0x30 c:/program files/microchip/xc32/v4.35/bin/bin/../../lib/gcc/pic32mx/8.3.1/../../../../pic32mx/lib/fpu64\libc-musl.a(__out.o)
 .debug_ranges  0x00000000000012c0       0x10 c:/program files/microchip/xc32/v4.35/bin/bin/../../lib/gcc/pic32mx/8.3.1/../../../../pic32mx/lib/fpu64\libc-musl.a(__pop_float.o)
 .debug_ranges  0x00000000000012d0       0x18 c:/program files/microchip/xc32/v4.35/bin/bin/../../lib/gcc/pic32mx/8.3.1/../../../../pic32mx/lib/fpu64\libc-musl.a(__stdio_close.o)
 .debug_ranges  0x00000000000012e8       0x10 c:/program files/microchip/xc32/v4.35/bin/bin/../../lib/gcc/pic32mx/8.3.1/../../../../pic32mx/lib/fpu64\libc-musl.a(__stdio_read.o)
 .debug_ranges  0x00000000000012f8       0x10 c:/program files/microchip/xc32/v4.35/bin/bin/../../lib/gcc/pic32mx/8.3.1/../../../../pic32mx/lib/fpu64\libc-musl.a(__towrite_rw.o)
 .debug_ranges  0x0000000000001308       0x18 c:/program files/microchip/xc32/v4.35/bin/bin/../../lib/gcc/pic32mx/8.3.1/../../../../pic32mx/lib/fpu64\libc-musl.a(fwrite.o)
 .debug_ranges  0x0000000000001320       0x20 c:/program files/microchip/xc32/v4.35/bin/bin/../../lib/gcc/pic32mx/8.3.1/../../../../pic32mx/lib/fpu64\libc-musl.a(putc.o)
 .debug_ranges  0x0000000000001340       0x18 c:/program files/microchip/xc32/v4.35/bin/bin/../../lib/gcc/pic32mx/8.3.1/../../../../pic32mx/lib/fpu64\libc-musl.a(setvbuf.o)
 .debug_ranges  0x0000000000001358       0x10 c:/program files/microchip/xc32/v4.35/bin/bin/../../lib/gcc/pic32mx/8.3.1/../../../../pic32mx/lib/fpu64\libc-musl.a(readv.o)
 .debug_ranges  0x0000000000001368      0x1c0 c:/program files/microchip/xc32/v4.35/bin/bin/../../lib/gcc/pic32mx/8.3.1/../../../../pic32mx/lib/fpu64\libc-musl.a(malloc.o)
 .debug_ranges  0x0000000000001528       0x10 c:/program files/microchip/xc32/v4.35/bin/bin/../../lib/gcc/pic32mx/8.3.1/../../../../pic32mx/lib/fpu64\libc-musl.a(expand_heap.o)
 .debug_ranges  0x0000000000001538       0x10 c:/program files/microchip/xc32/v4.35/bin/bin/../../lib/gcc/pic32mx/8.3.1/../../../../pic32mx/lib/fpu64\libc-musl.a(__fopen_rw.o)
 .debug_ranges  0x0000000000001548       0x10 c:/program files/microchip/xc32/v4.35/bin/bin/../../lib/gcc/pic32mx/8.3.1/../../../../pic32mx/lib/fpu64\libc-musl.a(__ftello_rw.o)
 .debug_ranges  0x0000000000001558       0x18 c:/program files/microchip/xc32/v4.35/bin/bin/../../lib/gcc/pic32mx/8.3.1/../../../../pic32mx/lib/fpu64\libc-musl.a(__init_stdio.o)
 .debug_ranges  0x0000000000001570       0x10 c:/program files/microchip/xc32/v4.35/bin/bin/../../lib/gcc/pic32mx/8.3.1/../../../../pic32mx/lib/fpu64\libc-musl.a(__io_buf_needed.o)
 .debug_ranges  0x0000000000001580       0x10 c:/program files/microchip/xc32/v4.35/bin/bin/../../lib/gcc/pic32mx/8.3.1/../../../../pic32mx/lib/fpu64\libc-musl.a(__io_file_needed.o)
 .debug_ranges  0x0000000000001590       0x10 c:/program files/microchip/xc32/v4.35/bin/bin/../../lib/gcc/pic32mx/8.3.1/../../../../pic32mx/lib/fpu64\libc-musl.a(__io_std_needed.o)
 .debug_ranges  0x00000000000015a0       0x10 c:/program files/microchip/xc32/v4.35/bin/bin/../../lib/gcc/pic32mx/8.3.1/../../../../pic32mx/lib/fpu64\libc-musl.a(__putc.o)
 .debug_ranges  0x00000000000015b0       0x20 c:/program files/microchip/xc32/v4.35/bin/bin/../../lib/gcc/pic32mx/8.3.1/../../../../pic32mx/lib/fpu64\libc-musl.a(__stderr.o)
 .debug_ranges  0x00000000000015d0       0x20 c:/program files/microchip/xc32/v4.35/bin/bin/../../lib/gcc/pic32mx/8.3.1/../../../../pic32mx/lib/fpu64\libc-musl.a(__stdio_exit.o)
 .debug_ranges  0x00000000000015f0       0x18 c:/program files/microchip/xc32/v4.35/bin/bin/../../lib/gcc/pic32mx/8.3.1/../../../../pic32mx/lib/fpu64\libc-musl.a(__stdio_write.o)
 .debug_ranges  0x0000000000001608       0x20 c:/program files/microchip/xc32/v4.35/bin/bin/../../lib/gcc/pic32mx/8.3.1/../../../../pic32mx/lib/fpu64\libc-musl.a(__stdout.o)
 .debug_ranges  0x0000000000001628       0x18 c:/program files/microchip/xc32/v4.35/bin/bin/../../lib/gcc/pic32mx/8.3.1/../../../../pic32mx/lib/fpu64\libc-musl.a(__towrite.o)
 .debug_ranges  0x0000000000001640       0x10 c:/program files/microchip/xc32/v4.35/bin/bin/../../lib/gcc/pic32mx/8.3.1/../../../../pic32mx/lib/fpu64\libc-musl.a(writev.o)
 .debug_ranges  0x0000000000001650       0x10 c:/program files/microchip/xc32/v4.35/bin/bin/../../lib/gcc/pic32mx/8.3.1/../../../../pic32mx/lib/fpu64\libc-musl.a(__overflow.o)
 .debug_ranges  0x0000000000001660       0x10 c:/program files/microchip/xc32/v4.35/bin/bin/../../lib/gcc/pic32mx/8.3.1/../../../../pic32mx/lib/fpu64\libc-musl.a(__fclose.o)
 .debug_ranges  0x0000000000001670       0x20 c:/program files/microchip/xc32/v4.35/bin/bin/../../lib/gcc/pic32mx/8.3.1/../../../../pic32mx/lib/fpu64\libc-musl.a(__fopen.o)
 .debug_ranges  0x0000000000001690       0x10 c:/program files/microchip/xc32/v4.35/bin/bin/../../lib/gcc/pic32mx/8.3.1/../../../../pic32mx/lib/fpu64\libc-musl.a(__fseeko.o)
 .debug_ranges  0x00000000000016a0       0x18 c:/program files/microchip/xc32/v4.35/bin/bin/../../lib/gcc/pic32mx/8.3.1/../../../../pic32mx/lib/fpu64\libc-musl.a(__ftello.o)
 .debug_ranges  0x00000000000016b8       0x18 c:/program files/microchip/xc32/v4.35/bin/bin/../../lib/gcc/pic32mx/8.3.1/../../../../pic32mx/lib/fpu64\libc-musl.a(__fwrite.o)
 .debug_ranges  0x00000000000016d0       0xd8 c:/program files/microchip/xc32/v4.35/bin/bin/../../lib/gcc/pic32mx/8.3.1/fpu64\libgcc.a(_udivdi3.o)
 .debug_ranges  0x00000000000017a8       0xc0 c:/program files/microchip/xc32/v4.35/bin/bin/../../lib/gcc/pic32mx/8.3.1/fpu64\libgcc.a(_umoddi3.o)
 .debug_ranges  0x0000000000001868       0x30 c:/program files/microchip/xc32/v4.35/bin/bin/../../lib/gcc/pic32mx/8.3.1/../../../../pic32mx/lib/fpu64\libpic32.a(sbrk.o)
 .debug_ranges  0x0000000000001898       0x10 c:/program files/microchip/xc32/v4.35/bin/bin/../../lib/gcc/pic32mx/8.3.1/../../../../pic32mx/lib/fpu64\libpic32.a(lseek.o)
 .debug_ranges  0x00000000000018a8       0x10 c:/program files/microchip/xc32/v4.35/bin/bin/../../lib/gcc/pic32mx/8.3.1/../../../../pic32mx/lib/fpu64\libpic32.a(close.o)

.gnu.attributes
                0x0000000000000000       0x10
 *(.gnu.attributes)
 .gnu.attributes
                0x0000000000000000       0x10 c:/program files/microchip/xc32/v4.35/bin/bin/../../lib/gcc/pic32mx/8.3.1/../../../../pic32mx/lib/fpu64\software-debug-break.o
 .gnu.attributes
                0x0000000000000010       0x10 build/Config_2/debug/_ext/1982400153/plib_adchs.o
 .gnu.attributes
                0x0000000000000020       0x10 build/Config_2/debug/_ext/1984168316/plib_canfd1.o
 .gnu.attributes
                0x0000000000000030       0x10 build/Config_2/debug/_ext/1984168316/plib_canfd3.o
 .gnu.attributes
                0x0000000000000040       0x10 build/Config_2/debug/_ext/1984168316/plib_canfd2.o
 .gnu.attributes
                0x0000000000000050       0x10 build/Config_2/debug/_ext/1984168316/plib_canfd4.o
 .gnu.attributes
                0x0000000000000060       0x10 build/Config_2/debug/_ext/60165520/plib_clk.o
 .gnu.attributes
                0x0000000000000070       0x10 build/Config_2/debug/_ext/1249264884/plib_coretimer.o
 .gnu.attributes
                0x0000000000000080       0x10 build/Config_2/debug/_ext/1865161661/plib_dmac.o
 .gnu.attributes
                0x0000000000000090       0x10 build/Config_2/debug/_ext/1865200349/plib_evic.o
 .gnu.attributes
                0x00000000000000a0       0x10 build/Config_2/debug/_ext/1865254177/plib_gpio.o
 .gnu.attributes
                0x00000000000000b0       0x10 build/Config_2/debug/_ext/60181895/plib_tmr2.o
 .gnu.attributes
                0x00000000000000c0       0x10 build/Config_2/debug/_ext/60181895/plib_tmr4.o
 .gnu.attributes
                0x00000000000000d0       0x10 build/Config_2/debug/_ext/60181895/plib_tmr3.o
 .gnu.attributes
                0x00000000000000e0       0x10 build/Config_2/debug/_ext/60181895/plib_tmr6.o
 .gnu.attributes
                0x00000000000000f0       0x10 build/Config_2/debug/_ext/60181895/plib_tmr5.o
 .gnu.attributes
                0x0000000000000100       0x10 build/Config_2/debug/_ext/1865638794/plib_tmr1.o
 .gnu.attributes
                0x0000000000000110       0x10 build/Config_2/debug/_ext/1865657120/plib_uart1.o
 .gnu.attributes
                0x0000000000000120       0x10 build/Config_2/debug/_ext/1865657120/plib_uart3.o
 .gnu.attributes
                0x0000000000000130       0x10 build/Config_2/debug/_ext/60184501/plib_wdt.o
 .gnu.attributes
                0x0000000000000140       0x10 build/Config_2/debug/_ext/163028504/xc32_monitor.o
 .gnu.attributes
                0x0000000000000150       0x10 build/Config_2/debug/_ext/1171490990/initialization.o
 .gnu.attributes
                0x0000000000000160       0x10 build/Config_2/debug/_ext/1171490990/interrupts.o
 .gnu.attributes
                0x0000000000000170       0x10 build/Config_2/debug/_ext/1171490990/exceptions.o
 .gnu.attributes
                0x0000000000000180       0x10 build/Config_2/debug/_ext/1360937237/main.o
 .gnu.attributes
                0x0000000000000190       0x10 build/Config_2/debug/APPS.o
 .gnu.attributes
                0x00000000000001a0       0x10 build/Config_2/debug/CAN_utils.o
 .gnu.attributes
                0x00000000000001b0       0x10 build/Config_2/debug/_ext/772537440/cansart.o
 .gnu.attributes
                0x00000000000001c0       0x10 build/Config_2/debug/_ext/772537440/cansartP.o
 .gnu.attributes
                0x00000000000001d0       0x10 build/Config_2/debug/TorqueControl.o
 .gnu.attributes
                0x00000000000001e0       0x10 C:\Users\pedro\AppData\Local\Temp\ccPLik8y.o
 .gnu.attributes
                0x00000000000001f0       0x10 C:\Users\pedro\AppData\Local\Temp\ccsPnebT.o
 .gnu.attributes
                0x0000000000000200       0x10 C:\Users\pedro\AppData\Local\Temp\ccCDuHJe.o
 .gnu.attributes
                0x0000000000000210       0x10 C:\Users\pedro\AppData\Local\Temp\cc1EEsTA.o
 .gnu.attributes
                0x0000000000000220       0x10 c:/program files/microchip/xc32/v4.35/bin/bin/../../lib/gcc/pic32mx/8.3.1/../../../../pic32mx/lib/fpu64\pic32_software_reset.o
 .gnu.attributes
                0x0000000000000230       0x10 c:/program files/microchip/xc32/v4.35/bin/bin/../../lib/gcc/pic32mx/8.3.1/../../../../pic32mx/lib/fpu64\libpic32.a(memset.o)
 .gnu.attributes
                0x0000000000000240       0x10 c:/program files/microchip/xc32/v4.35/bin/bin/../../lib/gcc/pic32mx/8.3.1/../../../../pic32mx/lib/fpu64\libpic32.a(default-on-reset.o)
 .gnu.attributes
                0x0000000000000250       0x10 c:/program files/microchip/xc32/v4.35/bin/bin/../../lib/gcc/pic32mx/8.3.1/../../../../pic32mx/lib/fpu64\libpic32.a(default-on-bootstrap.o)
 .gnu.attributes
                0x0000000000000260       0x10 c:/program files/microchip/xc32/v4.35/bin/bin/../../lib/gcc/pic32mx/8.3.1/../../../../pic32mx/lib/fpu64\libpic32.a(default-nmi-handler.o)
 .gnu.attributes
                0x0000000000000270       0x10 c:/program files/microchip/xc32/v4.35/bin/bin/../../lib/gcc/pic32mx/8.3.1/../../../../pic32mx/lib/fpu64\libpic32.a(pic32_data_init_core.o)
 .gnu.attributes
                0x0000000000000280       0x10 c:/program files/microchip/xc32/v4.35/bin/bin/../../lib/gcc/pic32mx/8.3.1/../../../../pic32mx/lib/fpu64\libpic32.a(general-exception.o)
 .gnu.attributes
                0x0000000000000290       0x10 c:/program files/microchip/xc32/v4.35/bin/bin/../../lib/gcc/pic32mx/8.3.1/../../../../pic32mx/lib/fpu64\libpic32.a(defaultinterrupt.o)
 .gnu.attributes
                0x00000000000002a0       0x10 c:/program files/microchip/xc32/v4.35/bin/bin/../../lib/gcc/pic32mx/8.3.1/../../../../pic32mx/lib/fpu64\libc-musl.a(__sio_printf_dn.o)
 .gnu.attributes
                0x00000000000002b0       0x10 c:/program files/microchip/xc32/v4.35/bin/bin/../../lib/gcc/pic32mx/8.3.1/../../../../pic32mx/lib/fpu64\libc-musl.a(__fmt_d.o)
 .gnu.attributes
                0x00000000000002c0       0x10 c:/program files/microchip/xc32/v4.35/bin/bin/../../lib/gcc/pic32mx/8.3.1/../../../../pic32mx/lib/fpu64\libc-musl.a(__pop_int.o)
 .gnu.attributes
                0x00000000000002d0       0x10 c:/program files/microchip/xc32/v4.35/bin/bin/../../lib/gcc/pic32mx/8.3.1/../../../../pic32mx/lib/fpu64\libc-musl.a(__pop_ptr.o)
 .gnu.attributes
                0x00000000000002e0       0x10 c:/program files/microchip/xc32/v4.35/bin/bin/../../lib/gcc/pic32mx/8.3.1/../../../../pic32mx/lib/fpu64\libc-musl.a(__printf_core.o)
 .gnu.attributes
                0x00000000000002f0       0x10 c:/program files/microchip/xc32/v4.35/bin/bin/../../lib/gcc/pic32mx/8.3.1/../../../../pic32mx/lib/fpu64\libc-musl.a(fflush.o)
 .gnu.attributes
                0x0000000000000300       0x10 c:/program files/microchip/xc32/v4.35/bin/bin/../../lib/gcc/pic32mx/8.3.1/../../../../pic32mx/lib/fpu64\libc-musl.a(stdin.o)
 .gnu.attributes
                0x0000000000000310       0x10 c:/program files/microchip/xc32/v4.35/bin/bin/../../lib/gcc/pic32mx/8.3.1/../../../../pic32mx/lib/fpu64\libc-musl.a(stdout.o)
 .gnu.attributes
                0x0000000000000320       0x10 c:/program files/microchip/xc32/v4.35/bin/bin/../../lib/gcc/pic32mx/8.3.1/../../../../pic32mx/lib/fpu64\libc-musl.a(puts.o)
 .gnu.attributes
                0x0000000000000330       0x10 c:/program files/microchip/xc32/v4.35/bin/bin/../../lib/gcc/pic32mx/8.3.1/../../../../pic32mx/lib/fpu64\libc-musl.a(setbuf.o)
 .gnu.attributes
                0x0000000000000340       0x10 c:/program files/microchip/xc32/v4.35/bin/bin/../../lib/gcc/pic32mx/8.3.1/../../../../pic32mx/lib/fpu64\libc-musl.a(atoi.o)
 .gnu.attributes
                0x0000000000000350       0x10 c:/program files/microchip/xc32/v4.35/bin/bin/../../lib/gcc/pic32mx/8.3.1/../../../../pic32mx/lib/fpu64\libc-musl.a(memcpy.o)
 .gnu.attributes
                0x0000000000000360       0x10 c:/program files/microchip/xc32/v4.35/bin/bin/../../lib/gcc/pic32mx/8.3.1/../../../../pic32mx/lib/fpu64\libc-musl.a(strlen.o)
 .gnu.attributes
                0x0000000000000370       0x10 c:/program files/microchip/xc32/v4.35/bin/bin/../../lib/gcc/pic32mx/8.3.1/../../../../pic32mx/lib/fpu64\libc-musl.a(tolower.o)
 .gnu.attributes
                0x0000000000000380       0x10 c:/program files/microchip/xc32/v4.35/bin/bin/../../lib/gcc/pic32mx/8.3.1/../../../../pic32mx/lib/fpu64\libc-musl.a(__int_vfprintf.o)
 .gnu.attributes
                0x0000000000000390       0x10 c:/program files/microchip/xc32/v4.35/bin/bin/../../lib/gcc/pic32mx/8.3.1/../../../../pic32mx/lib/fpu64\libc-musl.a(fputs.o)
 .gnu.attributes
                0x00000000000003a0       0x10 c:/program files/microchip/xc32/v4.35/bin/bin/../../lib/gcc/pic32mx/8.3.1/../../../../pic32mx/lib/fpu64\libc-musl.a(__cvt_u.o)
 .gnu.attributes
                0x00000000000003b0       0x10 c:/program files/microchip/xc32/v4.35/bin/bin/../../lib/gcc/pic32mx/8.3.1/../../../../pic32mx/lib/fpu64\libc-musl.a(__io_init_needed.o)
 .gnu.attributes
                0x00000000000003c0       0x10 c:/program files/microchip/xc32/v4.35/bin/bin/../../lib/gcc/pic32mx/8.3.1/../../../../pic32mx/lib/fpu64\libc-musl.a(__io_rw_needed.o)
 .gnu.attributes
                0x00000000000003d0       0x10 c:/program files/microchip/xc32/v4.35/bin/bin/../../lib/gcc/pic32mx/8.3.1/../../../../pic32mx/lib/fpu64\libc-musl.a(__out.o)
 .gnu.attributes
                0x00000000000003e0       0x10 c:/program files/microchip/xc32/v4.35/bin/bin/../../lib/gcc/pic32mx/8.3.1/../../../../pic32mx/lib/fpu64\libc-musl.a(__pop_float.o)
 .gnu.attributes
                0x00000000000003f0       0x10 c:/program files/microchip/xc32/v4.35/bin/bin/../../lib/gcc/pic32mx/8.3.1/../../../../pic32mx/lib/fpu64\libc-musl.a(__stdio_close.o)
 .gnu.attributes
                0x0000000000000400       0x10 c:/program files/microchip/xc32/v4.35/bin/bin/../../lib/gcc/pic32mx/8.3.1/../../../../pic32mx/lib/fpu64\libc-musl.a(__stdio_read.o)
 .gnu.attributes
                0x0000000000000410       0x10 c:/program files/microchip/xc32/v4.35/bin/bin/../../lib/gcc/pic32mx/8.3.1/../../../../pic32mx/lib/fpu64\libc-musl.a(__towrite_rw.o)
 .gnu.attributes
                0x0000000000000420       0x10 c:/program files/microchip/xc32/v4.35/bin/bin/../../lib/gcc/pic32mx/8.3.1/../../../../pic32mx/lib/fpu64\libc-musl.a(fwrite.o)
 .gnu.attributes
                0x0000000000000430       0x10 c:/program files/microchip/xc32/v4.35/bin/bin/../../lib/gcc/pic32mx/8.3.1/../../../../pic32mx/lib/fpu64\libc-musl.a(putc.o)
 .gnu.attributes
                0x0000000000000440       0x10 c:/program files/microchip/xc32/v4.35/bin/bin/../../lib/gcc/pic32mx/8.3.1/../../../../pic32mx/lib/fpu64\libc-musl.a(setvbuf.o)
 .gnu.attributes
                0x0000000000000450       0x10 c:/program files/microchip/xc32/v4.35/bin/bin/../../lib/gcc/pic32mx/8.3.1/../../../../pic32mx/lib/fpu64\libc-musl.a(readv.o)
 .gnu.attributes
                0x0000000000000460       0x10 c:/program files/microchip/xc32/v4.35/bin/bin/../../lib/gcc/pic32mx/8.3.1/../../../../pic32mx/lib/fpu64\libc-musl.a(malloc.o)
 .gnu.attributes
                0x0000000000000470       0x10 c:/program files/microchip/xc32/v4.35/bin/bin/../../lib/gcc/pic32mx/8.3.1/../../../../pic32mx/lib/fpu64\libc-musl.a(expand_heap.o)
 .gnu.attributes
                0x0000000000000480       0x10 c:/program files/microchip/xc32/v4.35/bin/bin/../../lib/gcc/pic32mx/8.3.1/../../../../pic32mx/lib/fpu64\libc-musl.a(__fopen_rw.o)
 .gnu.attributes
                0x0000000000000490       0x10 c:/program files/microchip/xc32/v4.35/bin/bin/../../lib/gcc/pic32mx/8.3.1/../../../../pic32mx/lib/fpu64\libc-musl.a(__ftello_rw.o)
 .gnu.attributes
                0x00000000000004a0       0x10 c:/program files/microchip/xc32/v4.35/bin/bin/../../lib/gcc/pic32mx/8.3.1/../../../../pic32mx/lib/fpu64\libc-musl.a(__init_stdio.o)
 .gnu.attributes
                0x00000000000004b0       0x10 c:/program files/microchip/xc32/v4.35/bin/bin/../../lib/gcc/pic32mx/8.3.1/../../../../pic32mx/lib/fpu64\libc-musl.a(__io_buf_needed.o)
 .gnu.attributes
                0x00000000000004c0       0x10 c:/program files/microchip/xc32/v4.35/bin/bin/../../lib/gcc/pic32mx/8.3.1/../../../../pic32mx/lib/fpu64\libc-musl.a(__io_file_needed.o)
 .gnu.attributes
                0x00000000000004d0       0x10 c:/program files/microchip/xc32/v4.35/bin/bin/../../lib/gcc/pic32mx/8.3.1/../../../../pic32mx/lib/fpu64\libc-musl.a(__io_std_needed.o)
 .gnu.attributes
                0x00000000000004e0       0x10 c:/program files/microchip/xc32/v4.35/bin/bin/../../lib/gcc/pic32mx/8.3.1/../../../../pic32mx/lib/fpu64\libc-musl.a(__putc.o)
 .gnu.attributes
                0x00000000000004f0       0x10 c:/program files/microchip/xc32/v4.35/bin/bin/../../lib/gcc/pic32mx/8.3.1/../../../../pic32mx/lib/fpu64\libc-musl.a(__stderr.o)
 .gnu.attributes
                0x0000000000000500       0x10 c:/program files/microchip/xc32/v4.35/bin/bin/../../lib/gcc/pic32mx/8.3.1/../../../../pic32mx/lib/fpu64\libc-musl.a(__stdio_exit.o)
 .gnu.attributes
                0x0000000000000510       0x10 c:/program files/microchip/xc32/v4.35/bin/bin/../../lib/gcc/pic32mx/8.3.1/../../../../pic32mx/lib/fpu64\libc-musl.a(__stdio_write.o)
 .gnu.attributes
                0x0000000000000520       0x10 c:/program files/microchip/xc32/v4.35/bin/bin/../../lib/gcc/pic32mx/8.3.1/../../../../pic32mx/lib/fpu64\libc-musl.a(__stdout.o)
 .gnu.attributes
                0x0000000000000530       0x10 c:/program files/microchip/xc32/v4.35/bin/bin/../../lib/gcc/pic32mx/8.3.1/../../../../pic32mx/lib/fpu64\libc-musl.a(__towrite.o)
 .gnu.attributes
                0x0000000000000540       0x10 c:/program files/microchip/xc32/v4.35/bin/bin/../../lib/gcc/pic32mx/8.3.1/../../../../pic32mx/lib/fpu64\libc-musl.a(writev.o)
 .gnu.attributes
                0x0000000000000550       0x10 c:/program files/microchip/xc32/v4.35/bin/bin/../../lib/gcc/pic32mx/8.3.1/../../../../pic32mx/lib/fpu64\libc-musl.a(libc.o)
 .gnu.attributes
                0x0000000000000560       0x10 c:/program files/microchip/xc32/v4.35/bin/bin/../../lib/gcc/pic32mx/8.3.1/../../../../pic32mx/lib/fpu64\libc-musl.a(__overflow.o)
 .gnu.attributes
                0x0000000000000570       0x10 c:/program files/microchip/xc32/v4.35/bin/bin/../../lib/gcc/pic32mx/8.3.1/../../../../pic32mx/lib/fpu64\libc-musl.a(__fclose.o)
 .gnu.attributes
                0x0000000000000580       0x10 c:/program files/microchip/xc32/v4.35/bin/bin/../../lib/gcc/pic32mx/8.3.1/../../../../pic32mx/lib/fpu64\libc-musl.a(__fopen.o)
 .gnu.attributes
                0x0000000000000590       0x10 c:/program files/microchip/xc32/v4.35/bin/bin/../../lib/gcc/pic32mx/8.3.1/../../../../pic32mx/lib/fpu64\libc-musl.a(__fseeko.o)
 .gnu.attributes
                0x00000000000005a0       0x10 c:/program files/microchip/xc32/v4.35/bin/bin/../../lib/gcc/pic32mx/8.3.1/../../../../pic32mx/lib/fpu64\libc-musl.a(__ftello.o)
 .gnu.attributes
                0x00000000000005b0       0x10 c:/program files/microchip/xc32/v4.35/bin/bin/../../lib/gcc/pic32mx/8.3.1/../../../../pic32mx/lib/fpu64\libc-musl.a(__fwrite.o)
 .gnu.attributes
                0x00000000000005c0       0x10 c:/program files/microchip/xc32/v4.35/bin/bin/../../lib/gcc/pic32mx/8.3.1/fpu64\libgcc.a(_lshrdi3.o)
 .gnu.attributes
                0x00000000000005d0       0x10 c:/program files/microchip/xc32/v4.35/bin/bin/../../lib/gcc/pic32mx/8.3.1/fpu64\libgcc.a(_ashldi3.o)
 .gnu.attributes
                0x00000000000005e0       0x10 c:/program files/microchip/xc32/v4.35/bin/bin/../../lib/gcc/pic32mx/8.3.1/fpu64\libgcc.a(_udivdi3.o)
 .gnu.attributes
                0x00000000000005f0       0x10 c:/program files/microchip/xc32/v4.35/bin/bin/../../lib/gcc/pic32mx/8.3.1/fpu64\libgcc.a(_umoddi3.o)
 .gnu.attributes
                0x0000000000000600       0x10 c:/program files/microchip/xc32/v4.35/bin/bin/../../lib/gcc/pic32mx/8.3.1/../../../../pic32mx/lib/fpu64\libpic32.a(sbrk.o)
 .gnu.attributes
                0x0000000000000610       0x10 c:/program files/microchip/xc32/v4.35/bin/bin/../../lib/gcc/pic32mx/8.3.1/../../../../pic32mx/lib/fpu64\libpic32.a(lseek.o)
 .gnu.attributes
                0x0000000000000620       0x10 c:/program files/microchip/xc32/v4.35/bin/bin/../../lib/gcc/pic32mx/8.3.1/../../../../pic32mx/lib/fpu64\libpic32.a(close.o)
 .gnu.attributes
                0x0000000000000630       0x10 c:/program files/microchip/xc32/v4.35/bin/bin/../../lib/gcc/pic32mx/8.3.1/../../../../pic32mx/lib/fpu64\libpic32.a(errno.o)
 .gnu.attributes
                0x0000000000000640       0x10 c:/program files/microchip/xc32/v4.35/bin/bin/../../lib/gcc/pic32mx/8.3.1/../../../../pic32mx/lib/fpu64\libpic32.a(pic32_data_init_clear.o)
 .gnu.attributes
                0x0000000000000650       0x10 c:/program files/microchip/xc32/v4.35/bin/bin/../../lib/gcc/pic32mx/8.3.1/../../../../pic32mx/lib/fpu64\libpic32.a(pic32_data_init_copy.o)
                0x0000000000000001                __MPLAB_DEBUG = 0x1
                0x0000000000000001                __DEBUG = 0x1
                0x0000000000000001                __MPLAB_DEBUGGER_PK3 = 0x1
                0x0000000000000200                _min_heap_size = 0x200
LOAD C:\Users\pedro\AppData\Local\Temp\ccPLik8y.o
LOAD C:\Users\pedro\AppData\Local\Temp\ccsPnebT.o
LOAD C:\Users\pedro\AppData\Local\Temp\ccCDuHJe.o
LOAD C:\Users\pedro\AppData\Local\Temp\cc1EEsTA.o
LOAD c:/program files/microchip/xc32/v4.35/bin/bin/../../lib/gcc/pic32mx/8.3.1/../../../../pic32mx/lib/fpu64\pic32_software_reset.o
LOAD c:/program files/microchip/xc32/v4.35/bin/bin/../../lib/gcc/pic32mx/8.3.1/fpu64\libgcc.a
START GROUP
LOAD c:/program files/microchip/xc32/v4.35/bin/bin/../../lib/gcc/pic32mx/8.3.1/../../../../pic32mx/lib/fpu64\libpic32.a
LOAD c:/program files/microchip/xc32/v4.35/bin/bin/../../lib/gcc/pic32mx/8.3.1/../../../../pic32mx/lib/fpu64\libdebug.a
LOAD c:/program files/microchip/xc32/v4.35/bin/bin/../../lib/gcc/pic32mx/8.3.1/../../../../pic32mx/lib/fpu64\libc-musl.a
LOAD c:/program files/microchip/xc32/v4.35/bin/bin/../../lib/gcc/pic32mx/8.3.1/../../../../pic32mx/lib/fpu64\libm-musl.a
LOAD c:/program files/microchip/xc32/v4.35/bin/bin/../../lib/gcc/pic32mx/8.3.1/../../../../pic32mx/lib/fpu64\libdspr2.a
LOAD c:/program files/microchip/xc32/v4.35/bin/bin/../../lib/gcc/pic32mx/8.3.1/../../../../pic32mx/lib/fpu64\libdsp.a
LOAD c:/program files/microchip/xc32/v4.35/bin/bin/../../lib/gcc/pic32mx/8.3.1/fpu64\libgcc.a
END GROUP
LOAD c:/program files/microchip/xc32/v4.35/bin/bin/../../lib/gcc/pic32mx/8.3.1/fpu64\libgcc.a
OUTPUT(dist/Config_2/debug/VCU2.0.X.debug.elf elf32-tradlittlemips)
LOAD data_init
LOAD stack

.reginfo        0x0000000000000000       0x18
 .reginfo       0x0000000000000000       0x18 c:/program files/microchip/xc32/v4.35/bin/bin/../../lib/gcc/pic32mx/8.3.1/../../../../pic32mx/lib/fpu64\software-debug-break.o

__xc_reference_data
                0x0000000000000000      0x2b4
 __xc_reference_data
                0x0000000000000000       0x24 c:/program files/microchip/xc32/v4.35/bin/bin/../../lib/gcc/pic32mx/8.3.1/../../../../pic32mx/lib/fpu64\libc-musl.a(stdin.o)
                0x0000000000000000                __stdin_needs_rw
 __xc_reference_data
                0x0000000000000024       0x24 c:/program files/microchip/xc32/v4.35/bin/bin/../../lib/gcc/pic32mx/8.3.1/../../../../pic32mx/lib/fpu64\libc-musl.a(stdout.o)
                0x0000000000000024                __stdout_needs_init
 __xc_reference_data
                0x0000000000000048       0x48 c:/program files/microchip/xc32/v4.35/bin/bin/../../lib/gcc/pic32mx/8.3.1/../../../../pic32mx/lib/fpu64\libc-musl.a(__io_init_needed.o)
                0x0000000000000048                __io_init_needed
                0x000000000000006c                __io_init_needs_file
 __xc_reference_data
                0x0000000000000090       0x54 c:/program files/microchip/xc32/v4.35/bin/bin/../../lib/gcc/pic32mx/8.3.1/../../../../pic32mx/lib/fpu64\libc-musl.a(__io_rw_needed.o)
                0x0000000000000090                __io_rw_needed
 __xc_reference_data
                0x00000000000000e4       0x24 c:/program files/microchip/xc32/v4.35/bin/bin/../../lib/gcc/pic32mx/8.3.1/../../../../pic32mx/lib/fpu64\libc-musl.a(putc.o)
                0x00000000000000e4                __putc_needs_out
 __xc_reference_data
                0x0000000000000108       0x24 c:/program files/microchip/xc32/v4.35/bin/bin/../../lib/gcc/pic32mx/8.3.1/../../../../pic32mx/lib/fpu64\libc-musl.a(setvbuf.o)
                0x0000000000000108                __setvbuf_needs_buf
 __xc_reference_data
                0x000000000000012c       0x84 c:/program files/microchip/xc32/v4.35/bin/bin/../../lib/gcc/pic32mx/8.3.1/../../../../pic32mx/lib/fpu64\libc-musl.a(__io_buf_needed.o)
                0x000000000000012c                __io_buf_needed
 __xc_reference_data
                0x00000000000001b0       0x24 c:/program files/microchip/xc32/v4.35/bin/bin/../../lib/gcc/pic32mx/8.3.1/../../../../pic32mx/lib/fpu64\libc-musl.a(__io_file_needed.o)
                0x00000000000001b0                __io_file_needed
 __xc_reference_data
                0x00000000000001d4       0x74 c:/program files/microchip/xc32/v4.35/bin/bin/../../lib/gcc/pic32mx/8.3.1/../../../../pic32mx/lib/fpu64\libc-musl.a(__io_std_needed.o)
                0x00000000000001d4                __io_std_needed
 __xc_reference_data
                0x0000000000000248       0x24 c:/program files/microchip/xc32/v4.35/bin/bin/../../lib/gcc/pic32mx/8.3.1/../../../../pic32mx/lib/fpu64\libc-musl.a(__stderr.o)
                0x0000000000000248                __stderr_needs_file
 __xc_reference_data
                0x000000000000026c       0x24 c:/program files/microchip/xc32/v4.35/bin/bin/../../lib/gcc/pic32mx/8.3.1/../../../../pic32mx/lib/fpu64\libc-musl.a(__stdout.o)
                0x000000000000026c                __stdout_needs_file
 __xc_reference_data
                0x0000000000000290       0x24 c:/program files/microchip/xc32/v4.35/bin/bin/../../lib/gcc/pic32mx/8.3.1/../../../../pic32mx/lib/fpu64\libc-musl.a(__fwrite.o)
                0x0000000000000290                __fwrite_needs_std

.stack          0x0000000080007f28      0x400
 .stack         0x0000000080007f28      0x400 stack

.__vector_offset_BF8105B8_data
                0x00000000bf8105b8       0xfc
 .__vector_offset_BF8105B8_data
                0x00000000bf8105b8       0xfc C:\Users\pedro\AppData\Local\Temp\ccCDuHJe.o

.__vector_offset_BF8106B8_data
                0x00000000bf8106b8       0xa0
 .__vector_offset_BF8106B8_data
                0x00000000bf8106b8       0xa0 C:\Users\pedro\AppData\Local\Temp\ccCDuHJe.o

.__vector_offset_BF810848_data
                0x00000000bf810848       0x94
 .__vector_offset_BF810848_data
                0x00000000bf810848       0x94 C:\Users\pedro\AppData\Local\Temp\ccCDuHJe.o

.__vector_offset_BF8107D0_data
                0x00000000bf8107d0       0x74
 .__vector_offset_BF8107D0_data
                0x00000000bf8107d0       0x74 C:\Users\pedro\AppData\Local\Temp\ccCDuHJe.o

.__vector_offset_BF810540_data
                0x00000000bf810540       0x70
 .__vector_offset_BF810540_data
                0x00000000bf810540       0x70 C:\Users\pedro\AppData\Local\Temp\ccCDuHJe.o

.__vector_offset_BF81079C_data
                0x00000000bf81079c       0x30
 .__vector_offset_BF81079C_data
                0x00000000bf81079c       0x30 C:\Users\pedro\AppData\Local\Temp\ccCDuHJe.o

.__vector_offset_BF8108F8_data
                0x00000000bf8108f8       0x28
 .__vector_offset_BF8108F8_data
                0x00000000bf8108f8       0x28 C:\Users\pedro\AppData\Local\Temp\ccCDuHJe.o

.__vector_offset_BF81076C_data
                0x00000000bf81076c       0x24
 .__vector_offset_BF81076C_data
                0x00000000bf81076c       0x24 C:\Users\pedro\AppData\Local\Temp\ccCDuHJe.o

.__vector_offset_BF810938_data
                0x00000000bf810938        0x8
 .__vector_offset_BF810938_data
                0x00000000bf810938        0x8 C:\Users\pedro\AppData\Local\Temp\ccCDuHJe.o

.COHERENTBSS$   0x00000000a0000430     0x6da0
 .COHERENTBSS$  0x00000000a0000430     0x1c00 build/Config_2/debug/_ext/1984168316/plib_canfd3.o
 .bss.can_message_buffer
                0x00000000a0002030     0x1b08 build/Config_2/debug/_ext/1984168316/plib_canfd2.o
 *fill*         0x00000000a0003b38        0x8 
 .bss.can_message_buffer
                0x00000000a0003b40     0x1b08 build/Config_2/debug/_ext/1984168316/plib_canfd4.o
 *fill*         0x00000000a0005648        0x8 
 .bss.can_message_buffer
                0x00000000a0005650     0x1b00 build/Config_2/debug/_ext/1984168316/plib_canfd1.o
 .bss.ADC       0x00000000a0007150       0x80 build/Config_2/debug/_ext/1360937237/main.o
                0x00000000a0007150                ADC

.data           0x00000000800071d0       0xd0
 .data          0x00000000800071d0       0x68 c:/program files/microchip/xc32/v4.35/bin/bin/../../lib/gcc/pic32mx/8.3.1/../../../../pic32mx/lib/fpu64\libc-musl.a(stdin.o)
                0x00000000800071d0                __stdin_used
 .data          0x0000000080007238       0x68 c:/program files/microchip/xc32/v4.35/bin/bin/../../lib/gcc/pic32mx/8.3.1/../../../../pic32mx/lib/fpu64\libc-musl.a(stdout.o)
                0x0000000080007238                __stdout_used

.data._stdin    0x0000000080000424        0x4
 .data._stdin   0x0000000080000424        0x4 c:/program files/microchip/xc32/v4.35/bin/bin/../../lib/gcc/pic32mx/8.3.1/../../../../pic32mx/lib/fpu64\libc-musl.a(stdin.o)
                0x0000000080000424                _stdin

.data._stdout   0x0000000080000428        0x4
 .data._stdout  0x0000000080000428        0x4 c:/program files/microchip/xc32/v4.35/bin/bin/../../lib/gcc/pic32mx/8.3.1/../../../../pic32mx/lib/fpu64\libc-musl.a(stdout.o)
                0x0000000080000428                _stdout

.bss            0x00000000800072a0      0x618
 .bss           0x00000000800072a0      0x408 c:/program files/microchip/xc32/v4.35/bin/bin/../../lib/gcc/pic32mx/8.3.1/../../../../pic32mx/lib/fpu64\libc-musl.a(stdin.o)
 .bss           0x00000000800076a8      0x210 c:/program files/microchip/xc32/v4.35/bin/bin/../../lib/gcc/pic32mx/8.3.1/../../../../pic32mx/lib/fpu64\libc-musl.a(malloc.o)

.bss.ADCHS_CallbackObj
                0x00000000800078b8      0x1a8
 .bss.ADCHS_CallbackObj
                0x00000000800078b8      0x1a8 build/Config_2/debug/_ext/1982400153/plib_adchs.o

.bss.myHV500    0x0000000080007a60       0xa4
 .bss.myHV500   0x0000000080007a60       0xa4 build/Config_2/debug/_ext/1360937237/main.o
                0x0000000080007a60                myHV500

.bss.gDMAChannelObj
                0x0000000080007b04       0x80
 .bss.gDMAChannelObj
                0x0000000080007b04       0x80 build/Config_2/debug/_ext/1865161661/plib_dmac.o

.bss            0x0000000080007b84       0x50
 .bss           0x0000000080007b84       0x50 c:/program files/microchip/xc32/v4.35/bin/bin/../../lib/gcc/pic32mx/8.3.1/../../../../pic32mx/lib/fpu64\libc-musl.a(libc.o)
                0x0000000080007b84                program_invocation_name
                0x0000000080007b84                __progname_full
                0x0000000080007b88                __progname
                0x0000000080007b88                program_invocation_short_name
                0x0000000080007b8c                __sysinfo
                0x0000000080007b90                __hwcap
                0x0000000080007b94                __libc

.bss.data.35784
                0x0000000080007bd4       0x48
 .bss.data.35784
                0x0000000080007bd4       0x48 build/Config_2/debug/CAN_utils.o

.bss.adc_flag   0x0000000080007c1c       0x40
 .bss.adc_flag  0x0000000080007c1c       0x40 build/Config_2/debug/_ext/1360937237/main.o
                0x0000000080007c1c                adc_flag

.bss.currentMillis
                0x0000000080007c5c       0x28
 .bss.currentMillis
                0x0000000080007c5c       0x28 build/Config_2/debug/_ext/1360937237/main.o
                0x0000000080007c5c                currentMillis

.bss.previousMillis
                0x0000000080007c84       0x28
 .bss.previousMillis
                0x0000000080007c84       0x28 build/Config_2/debug/_ext/1360937237/main.o
                0x0000000080007c84                previousMillis

.bss            0x0000000080007cac       0x24
 .bss           0x0000000080007cac       0x24 c:/program files/microchip/xc32/v4.35/bin/bin/../../lib/gcc/pic32mx/8.3.1/../../../../pic32mx/lib/fpu64\libpic32.a(sbrk.o)
                0x0000000080007cc8                _maxbrk
                0x0000000080007ccc                _minbrk

.bss.buffer.35991
                0x0000000080007cd0       0x14
 .bss.buffer.35991
                0x0000000080007cd0       0x14 build/Config_2/debug/_ext/1360937237/main.o

.bss.buffer.35988
                0x0000000080007ce4       0x14
 .bss.buffer.35988
                0x0000000080007ce4       0x14 build/Config_2/debug/_ext/1360937237/main.o

.bss.status     0x0000000080007cf8       0x10
 .bss.status    0x0000000080007cf8       0x10 build/Config_2/debug/CAN_utils.o
                0x0000000080007cf8                status

.bss.errno      0x000000008000042c        0x4
 .bss.errno     0x000000008000042c        0x4 c:/program files/microchip/xc32/v4.35/bin/bin/../../lib/gcc/pic32mx/8.3.1/../../../../pic32mx/lib/fpu64\libpic32.a(errno.o)
                0x000000008000042c                errno

.config_BFC03FC0.__config_BFC03FC0
                0x00000000bfc03fc0        0x4
 .config_BFC03FC0.__config_BFC03FC0
                0x00000000bfc03fc0        0x4 build/Config_2/debug/_ext/1171490990/initialization.o
                0x00000000bfc03fc0                __config_BFC03FC0

.config_BFC03FC4.__config_BFC03FC4
                0x00000000bfc03fc4        0x4
 .config_BFC03FC4.__config_BFC03FC4
                0x00000000bfc03fc4        0x4 build/Config_2/debug/_ext/1171490990/initialization.o
                0x00000000bfc03fc4                __config_BFC03FC4

.config_BFC03FC8.__config_BFC03FC8
                0x00000000bfc03fc8        0x4
 .config_BFC03FC8.__config_BFC03FC8
                0x00000000bfc03fc8        0x4 build/Config_2/debug/_ext/1171490990/initialization.o
                0x00000000bfc03fc8                __config_BFC03FC8

.config_BFC03FCC.__config_BFC03FCC
                0x00000000bfc03fcc        0x4
 .config_BFC03FCC.__config_BFC03FCC
                0x00000000bfc03fcc        0x4 build/Config_2/debug/_ext/1171490990/initialization.o
                0x00000000bfc03fcc                __config_BFC03FCC

.config_BFC03FF0.__config_BFC03FF0
                0x00000000bfc03ff0        0x4
 .config_BFC03FF0.__config_BFC03FF0
                0x00000000bfc03ff0        0x4 build/Config_2/debug/_ext/1171490990/initialization.o
                0x00000000bfc03ff0                __config_BFC03FF0

.dinit          0x000000009d0002a0      0x700
 .dinit         0x000000009d0002a0      0x700 data_init

.text.__printf_core
                0x000000009d0009a0      0x5a4
 .text.__printf_core
                0x000000009d0009a0      0x5a4 c:/program files/microchip/xc32/v4.35/bin/bin/../../lib/gcc/pic32mx/8.3.1/../../../../pic32mx/lib/fpu64\libc-musl.a(__printf_core.o)
                0x000000009d0009a0                __printf_core

.text.main      0x000000009d000f44      0x3cc
 .text.main     0x000000009d000f44      0x3cc build/Config_2/debug/_ext/1360937237/main.o
                0x000000009d000f44                main

.text           0x000000009d001310      0x774
 .text          0x000000009d001310      0x3bc c:/program files/microchip/xc32/v4.35/bin/bin/../../lib/gcc/pic32mx/8.3.1/fpu64\libgcc.a(_udivdi3.o)
                0x000000009d001310                __udivdi3
 .text          0x000000009d0016cc      0x3b8 c:/program files/microchip/xc32/v4.35/bin/bin/../../lib/gcc/pic32mx/8.3.1/fpu64\libgcc.a(_umoddi3.o)
                0x000000009d0016cc                __umoddi3

.text.can_bus_read
                0x000000009d001a84      0x328
 .text.can_bus_read
                0x000000009d001a84      0x328 build/Config_2/debug/CAN_utils.o
                0x000000009d001a84                can_bus_read

.text.malloc    0x000000009d001dac      0x298
 .text.malloc   0x000000009d001dac      0x298 c:/program files/microchip/xc32/v4.35/bin/bin/../../lib/gcc/pic32mx/8.3.1/../../../../pic32mx/lib/fpu64\libc-musl.a(malloc.o)
                0x000000009d001dac                malloc

.text.PrintToConsole
                0x000000009d002044      0x234
 .text.PrintToConsole
                0x000000009d002044      0x234 build/Config_2/debug/_ext/1360937237/main.o
                0x000000009d002044                PrintToConsole

.text.CAN3_MessageTransmit
                0x000000009d002278      0x224
 .text.CAN3_MessageTransmit
                0x000000009d002278      0x224 build/Config_2/debug/_ext/1984168316/plib_canfd3.o
                0x000000009d002278                CAN3_MessageTransmit

.text.CAN2_MessageTransmit
                0x000000009d00249c      0x224
 .text.CAN2_MessageTransmit
                0x000000009d00249c      0x224 build/Config_2/debug/_ext/1984168316/plib_canfd2.o
                0x000000009d00249c                CAN2_MessageTransmit

.text.CAN4_MessageTransmit
                0x000000009d0026c0      0x224
 .text.CAN4_MessageTransmit
                0x000000009d0026c0      0x224 build/Config_2/debug/_ext/1984168316/plib_canfd4.o
                0x000000009d0026c0                CAN4_MessageTransmit

.text.CAN1_MessageTransmit
                0x000000009d0028e4      0x220
 .text.CAN1_MessageTransmit
                0x000000009d0028e4      0x220 build/Config_2/debug/_ext/1984168316/plib_canfd1.o
                0x000000009d0028e4                CAN1_MessageTransmit

.text.TIMER_1_Handler
                0x000000009d002b04      0x1d0
 .text.TIMER_1_Handler
                0x000000009d002b04      0x1d0 build/Config_2/debug/_ext/1171490990/interrupts.o
                0x000000009d002b04                TIMER_1_Handler

.text.TIMER_2_Handler
                0x000000009d002cd4      0x1d0
 .text.TIMER_2_Handler
                0x000000009d002cd4      0x1d0 build/Config_2/debug/_ext/1171490990/interrupts.o
                0x000000009d002cd4                TIMER_2_Handler

.text.TIMER_3_Handler
                0x000000009d002ea4      0x1d0
 .text.TIMER_3_Handler
                0x000000009d002ea4      0x1d0 build/Config_2/debug/_ext/1171490990/interrupts.o
                0x000000009d002ea4                TIMER_3_Handler

.text.TIMER_4_Handler
                0x000000009d003074      0x1d0
 .text.TIMER_4_Handler
                0x000000009d003074      0x1d0 build/Config_2/debug/_ext/1171490990/interrupts.o
                0x000000009d003074                TIMER_4_Handler

.text.TIMER_5_Handler
                0x000000009d003244      0x1d0
 .text.TIMER_5_Handler
                0x000000009d003244      0x1d0 build/Config_2/debug/_ext/1171490990/interrupts.o
                0x000000009d003244                TIMER_5_Handler

.text.DMA0_Handler
                0x000000009d003414      0x1d0
 .text.DMA0_Handler
                0x000000009d003414      0x1d0 build/Config_2/debug/_ext/1171490990/interrupts.o
                0x000000009d003414                DMA0_Handler

.text.TIMER_6_Handler
                0x000000009d0035e4      0x1d0
 .text.TIMER_6_Handler
                0x000000009d0035e4      0x1d0 build/Config_2/debug/_ext/1171490990/interrupts.o
                0x000000009d0035e4                TIMER_6_Handler

.text.ADC_DATA0_Handler
                0x000000009d0037b4      0x1d0
 .text.ADC_DATA0_Handler
                0x000000009d0037b4      0x1d0 build/Config_2/debug/_ext/1171490990/interrupts.o
                0x000000009d0037b4                ADC_DATA0_Handler

.text.ADC_DATA3_Handler
                0x000000009d003984      0x1d0
 .text.ADC_DATA3_Handler
                0x000000009d003984      0x1d0 build/Config_2/debug/_ext/1171490990/interrupts.o
                0x000000009d003984                ADC_DATA3_Handler

.text.ADC_DATA8_Handler
                0x000000009d003b54      0x1d0
 .text.ADC_DATA8_Handler
                0x000000009d003b54      0x1d0 build/Config_2/debug/_ext/1171490990/interrupts.o
                0x000000009d003b54                ADC_DATA8_Handler

.text.ADC_DATA14_Handler
                0x000000009d003d24      0x1d0
 .text.ADC_DATA14_Handler
                0x000000009d003d24      0x1d0 build/Config_2/debug/_ext/1171490990/interrupts.o
                0x000000009d003d24                ADC_DATA14_Handler

.text.can_filter_id_bus2
                0x000000009d003ef4      0x1a4
 .text.can_filter_id_bus2
                0x000000009d003ef4      0x1a4 build/Config_2/debug/CAN_utils.o
                0x000000009d003ef4                can_filter_id_bus2

.text.free      0x000000009d004098      0x198
 .text.free     0x000000009d004098      0x198 c:/program files/microchip/xc32/v4.35/bin/bin/../../lib/gcc/pic32mx/8.3.1/../../../../pic32mx/lib/fpu64\libc-musl.a(malloc.o)
                0x000000009d004098                free

.text.can_bus_send
                0x000000009d004230      0x18c
 .text.can_bus_send
                0x000000009d004230      0x18c build/Config_2/debug/CAN_utils.o
                0x000000009d004230                can_bus_send

.text.__pop_int
                0x000000009d0043bc      0x188
 .text.__pop_int
                0x000000009d0043bc      0x188 c:/program files/microchip/xc32/v4.35/bin/bin/../../lib/gcc/pic32mx/8.3.1/../../../../pic32mx/lib/fpu64\libc-musl.a(__pop_int.o)
                0x000000009d0043bc                __pop_int
                0x000000009d0043bc                __pop_int_needed

.text.ADCHS_Initialize
                0x000000009d000000      0x17c
 .text.ADCHS_Initialize
                0x000000009d000000      0x17c build/Config_2/debug/_ext/1982400153/plib_adchs.o
                0x000000009d000000                ADCHS_Initialize

.text._sbrk_init
                0x000000009d004544      0x154
 .text._sbrk_init
                0x000000009d004544      0x154 c:/program files/microchip/xc32/v4.35/bin/bin/../../lib/gcc/pic32mx/8.3.1/../../../../pic32mx/lib/fpu64\libpic32.a(sbrk.o)
                0x000000009d004544                _sbrk_init

.text.__fmt_d   0x000000009d004698      0x150
 .text.__fmt_d  0x000000009d004698      0x150 c:/program files/microchip/xc32/v4.35/bin/bin/../../lib/gcc/pic32mx/8.3.1/../../../../pic32mx/lib/fpu64\libc-musl.a(__fmt_d.o)
                0x000000009d004698                __fmt_d_needed
                0x000000009d004698                __fmt_d

.text.DMA0_InterruptHandler
                0x000000009d0047e8      0x13c
 .text.DMA0_InterruptHandler
                0x000000009d0047e8      0x13c build/Config_2/debug/_ext/1865161661/plib_dmac.o
                0x000000009d0047e8                DMA0_InterruptHandler

.text.__cvt_u   0x000000009d004924      0x13c
 .text.__cvt_u  0x000000009d004924      0x13c c:/program files/microchip/xc32/v4.35/bin/bin/../../lib/gcc/pic32mx/8.3.1/../../../../pic32mx/lib/fpu64\libc-musl.a(__cvt_u.o)
                0x000000009d004924                __cvt_u

.text.CalculateMean
                0x000000009d004a60      0x138
 .text.CalculateMean
                0x000000009d004a60      0x138 build/Config_2/debug/_ext/1360937237/main.o
                0x000000009d004a60                CalculateMean

.text.UART1_Read
                0x000000009d004b98      0x134
 .text.UART1_Read
                0x000000009d004b98      0x134 build/Config_2/debug/_ext/1865657120/plib_uart1.o
                0x000000009d004b98                UART1_Read

.text.UART3_Read
                0x000000009d004ccc      0x134
 .text.UART3_Read
                0x000000009d004ccc      0x134 build/Config_2/debug/_ext/1865657120/plib_uart3.o
                0x000000009d004ccc                UART3_Read

.text.APPS_Init
                0x000000009d004e00      0x128
 .text.APPS_Init
                0x000000009d004e00      0x128 build/Config_2/debug/APPS.o
                0x000000009d004e00                APPS_Init

.text.APPS_Function
                0x000000009d004f28      0x118
 .text.APPS_Function
                0x000000009d004f28      0x118 build/Config_2/debug/APPS.o
                0x000000009d004f28                APPS_Function

.text.__write_buffered
                0x000000009d005040      0x114
 .text.__write_buffered
                0x000000009d005040      0x114 c:/program files/microchip/xc32/v4.35/bin/bin/../../lib/gcc/pic32mx/8.3.1/../../../../pic32mx/lib/fpu64\libc-musl.a(__stdio_write.o)
                0x000000009d005040                __do_write

.text.GPIO_Initialize
                0x000000009d005154      0x10c
 .text.GPIO_Initialize
                0x000000009d005154      0x10c build/Config_2/debug/_ext/1865254177/plib_gpio.o
                0x000000009d005154                GPIO_Initialize

.text.SYS_Initialize
                0x000000009d005260      0x10c
 .text.SYS_Initialize
                0x000000009d005260      0x10c build/Config_2/debug/_ext/1171490990/initialization.o
                0x000000009d005260                SYS_Initialize

.text.__stdio_write_buffered
                0x000000009d00536c      0x104
 .text.__stdio_write_buffered
                0x000000009d00536c      0x104 c:/program files/microchip/xc32/v4.35/bin/bin/../../lib/gcc/pic32mx/8.3.1/../../../../pic32mx/lib/fpu64\libc-musl.a(__stdio_write.o)
                0x000000009d00536c                __stdio_write_buffered

.text.CAN1_MessageReceive
                0x000000009d005470      0x100
 .text.CAN1_MessageReceive
                0x000000009d005470      0x100 build/Config_2/debug/_ext/1984168316/plib_canfd1.o
                0x000000009d005470                CAN1_MessageReceive

.text.CAN3_MessageReceive
                0x000000009d005570      0x100
 .text.CAN3_MessageReceive
                0x000000009d005570      0x100 build/Config_2/debug/_ext/1984168316/plib_canfd3.o
                0x000000009d005570                CAN3_MessageReceive

.text.CAN2_MessageReceive
                0x000000009d005670      0x100
 .text.CAN2_MessageReceive
                0x000000009d005670      0x100 build/Config_2/debug/_ext/1984168316/plib_canfd2.o
                0x000000009d005670                CAN2_MessageReceive

.text.CAN4_MessageReceive
                0x000000009d005770      0x100
 .text.CAN4_MessageReceive
                0x000000009d005770      0x100 build/Config_2/debug/_ext/1984168316/plib_canfd4.o
                0x000000009d005770                CAN4_MessageReceive

.text.__pad     0x000000009d005870      0x100
 .text.__pad    0x000000009d005870      0x100 c:/program files/microchip/xc32/v4.35/bin/bin/../../lib/gcc/pic32mx/8.3.1/../../../../pic32mx/lib/fpu64\libc-musl.a(__printf_core.o)
                0x000000009d005870                __pad

.text.BlinkCANLED
                0x000000009d005970       0xf8
 .text.BlinkCANLED
                0x000000009d005970       0xf8 build/Config_2/debug/_ext/1360937237/main.o
                0x000000009d005970                BlinkCANLED

.text.TMR1_5ms  0x000000009d005a68       0xf0
 .text.TMR1_5ms
                0x000000009d005a68       0xf0 build/Config_2/debug/_ext/1360937237/main.o
                0x000000009d005a68                TMR1_5ms

.text.startupSequence
                0x000000009d005b58       0xf0
 .text.startupSequence
                0x000000009d005b58       0xf0 build/Config_2/debug/_ext/1360937237/main.o
                0x000000009d005b58                startupSequence

.text.__pop_ptr
                0x000000009d005c48       0xe4
 .text.__pop_ptr
                0x000000009d005c48       0xe4 c:/program files/microchip/xc32/v4.35/bin/bin/../../lib/gcc/pic32mx/8.3.1/../../../../pic32mx/lib/fpu64\libc-musl.a(__pop_ptr.o)
                0x000000009d005c48                __pop_ptr_needed
                0x000000009d005c48                __pop_ptr

.text.general_exception
                0x000000009d005d2c       0xdc
 .text.general_exception
                0x000000009d005d2c       0xdc c:/program files/microchip/xc32/v4.35/bin/bin/../../lib/gcc/pic32mx/8.3.1/../../../../pic32mx/lib/fpu64\libpic32.a(general-exception.o)
                0x000000009d005d2c                _general_exception_context

.text.CAN3_Initialize
                0x000000009d005e08       0xd0
 .text.CAN3_Initialize
                0x000000009d005e08       0xd0 build/Config_2/debug/_ext/1984168316/plib_canfd3.o
                0x000000009d005e08                CAN3_Initialize

.text.CAN2_Initialize
                0x000000009d005ed8       0xcc
 .text.CAN2_Initialize
                0x000000009d005ed8       0xcc build/Config_2/debug/_ext/1984168316/plib_canfd2.o
                0x000000009d005ed8                CAN2_Initialize

.text.__stdio_read
                0x000000009d005fa4       0xcc
 .text.__stdio_read
                0x000000009d005fa4       0xcc c:/program files/microchip/xc32/v4.35/bin/bin/../../lib/gcc/pic32mx/8.3.1/../../../../pic32mx/lib/fpu64\libc-musl.a(__stdio_read.o)
                0x000000009d005fa4                __stdio_read

.text.CAN4_Initialize
                0x000000009d006070       0xc8
 .text.CAN4_Initialize
                0x000000009d006070       0xc8 build/Config_2/debug/_ext/1984168316/plib_canfd4.o
                0x000000009d006070                CAN4_Initialize

.text.CAN1_Initialize
                0x000000009d006138       0xc0
 .text.CAN1_Initialize
                0x000000009d006138       0xc0 build/Config_2/debug/_ext/1984168316/plib_canfd1.o
                0x000000009d006138                CAN1_Initialize

.text.__stdio_close_rw
                0x000000009d0061f8       0xc0
 .text.__stdio_close_rw
                0x000000009d0061f8       0xc0 c:/program files/microchip/xc32/v4.35/bin/bin/../../lib/gcc/pic32mx/8.3.1/../../../../pic32mx/lib/fpu64\libc-musl.a(__stdio_close.o)
                0x000000009d0061f8                __stdio_close_rw

.text._sbrk     0x000000009d0062b8       0xb0
 .text._sbrk    0x000000009d0062b8       0xb0 c:/program files/microchip/xc32/v4.35/bin/bin/../../lib/gcc/pic32mx/8.3.1/../../../../pic32mx/lib/fpu64\libpic32.a(sbrk.o)
                0x000000009d0062b8                _sbrk

.text.setvbuf   0x000000009d006368       0xac
 .text.setvbuf  0x000000009d006368       0xac c:/program files/microchip/xc32/v4.35/bin/bin/../../lib/gcc/pic32mx/8.3.1/../../../../pic32mx/lib/fpu64\libc-musl.a(setvbuf.o)
                0x000000009d006368                setvbuf

.text.unbin     0x000000009d006414       0xac
 .text.unbin    0x000000009d006414       0xac c:/program files/microchip/xc32/v4.35/bin/bin/../../lib/gcc/pic32mx/8.3.1/../../../../pic32mx/lib/fpu64\libc-musl.a(malloc.o)

.text.APPS_TimedOut
                0x000000009d0064c0       0xa8
 .text.APPS_TimedOut
                0x000000009d0064c0       0xa8 build/Config_2/debug/APPS.o
                0x000000009d0064c0                APPS_TimedOut

.text           0x000000009d006568       0xa8
 .text          0x000000009d006568       0xa8 c:/program files/microchip/xc32/v4.35/bin/bin/../../lib/gcc/pic32mx/8.3.1/../../../../pic32mx/lib/fpu64\libpic32.a(memset.o)
                0x000000009d006568                memset

.rodata.PrintToConsole.str1.4
                0x000000009d006610       0xa4
 .rodata.PrintToConsole.str1.4
                0x000000009d006610       0xa4 build/Config_2/debug/_ext/1360937237/main.o

.text.__overflow
                0x000000009d0066b4       0x94
 .text.__overflow
                0x000000009d0066b4       0x94 c:/program files/microchip/xc32/v4.35/bin/bin/../../lib/gcc/pic32mx/8.3.1/../../../../pic32mx/lib/fpu64\libc-musl.a(__overflow.o)
                0x000000009d0066b4                __overflow

.text.CLK_Initialize
                0x000000009d006748       0x90
 .text.CLK_Initialize
                0x000000009d006748       0x90 build/Config_2/debug/_ext/60165520/plib_clk.o
                0x000000009d006748                CLK_Initialize

.text.__out     0x000000009d0067d8       0x8c
 .text.__out    0x000000009d0067d8       0x8c c:/program files/microchip/xc32/v4.35/bin/bin/../../lib/gcc/pic32mx/8.3.1/../../../../pic32mx/lib/fpu64\libc-musl.a(__out.o)
                0x000000009d0067d8                __out_needed
                0x000000009d0067d8                __out

.text.TMR2_100ms
                0x000000009d006864       0x7c
 .text.TMR2_100ms
                0x000000009d006864       0x7c build/Config_2/debug/_ext/1360937237/main.o
                0x000000009d006864                TMR2_100ms

.text           0x000000009d0068e0       0x7c
 .text          0x000000009d0068e0       0x7c c:/program files/microchip/xc32/v4.35/bin/bin/../../lib/gcc/pic32mx/8.3.1/../../../../pic32mx/lib/fpu64\libpic32.a(pic32_data_init_core.o)
                0x000000009d0068e0                __dinit_copy_val_data
                0x000000009d0068e0                __dinit_decompress
                0x000000009d0068e0                __dinit_copy_emb
                0x000000009d0068e8                __pic32_data_init

.text.atoi      0x000000009d00695c       0x7c
 .text.atoi     0x000000009d00695c       0x7c c:/program files/microchip/xc32/v4.35/bin/bin/../../lib/gcc/pic32mx/8.3.1/../../../../pic32mx/lib/fpu64\libc-musl.a(atoi.o)
                0x000000009d00695c                atoi

.text.__readv   0x000000009d0069d8       0x7c
 .text.__readv  0x000000009d0069d8       0x7c c:/program files/microchip/xc32/v4.35/bin/bin/../../lib/gcc/pic32mx/8.3.1/../../../../pic32mx/lib/fpu64\libc-musl.a(readv.o)
                0x000000009d0069d8                readv

.text.__writev  0x000000009d006a54       0x7c
 .text.__writev
                0x000000009d006a54       0x7c c:/program files/microchip/xc32/v4.35/bin/bin/../../lib/gcc/pic32mx/8.3.1/../../../../pic32mx/lib/fpu64\libc-musl.a(writev.o)
                0x000000009d006a54                writev

.text.UART3_Write
                0x000000009d006ad0       0x74
 .text.UART3_Write
                0x000000009d006ad0       0x74 build/Config_2/debug/_ext/1865657120/plib_uart3.o
                0x000000009d006ad0                UART3_Write

.text.alloc_rev
                0x000000009d006b44       0x74
 .text.alloc_rev
                0x000000009d006b44       0x74 c:/program files/microchip/xc32/v4.35/bin/bin/../../lib/gcc/pic32mx/8.3.1/../../../../pic32mx/lib/fpu64\libc-musl.a(malloc.o)

.text.alloc_fwd
                0x000000009d000190       0x70
 .text.alloc_fwd
                0x000000009d000190       0x70 c:/program files/microchip/xc32/v4.35/bin/bin/../../lib/gcc/pic32mx/8.3.1/../../../../pic32mx/lib/fpu64\libc-musl.a(malloc.o)

.text.__putc    0x000000009d006bb8       0x70
 .text.__putc   0x000000009d006bb8       0x70 c:/program files/microchip/xc32/v4.35/bin/bin/../../lib/gcc/pic32mx/8.3.1/../../../../pic32mx/lib/fpu64\libc-musl.a(__putc.o)
                0x000000009d006bb8                __putc_needed
                0x000000009d006bb8                __putc

.text.EVIC_Initialize
                0x000000009d006c28       0x6c
 .text.EVIC_Initialize
                0x000000009d006c28       0x6c build/Config_2/debug/_ext/1865200349/plib_evic.o
                0x000000009d006c28                EVIC_Initialize

.text.can_bus_send_AdBus_RPM
                0x000000009d006c94       0x68
 .text.can_bus_send_AdBus_RPM
                0x000000009d006c94       0x68 build/Config_2/debug/CAN_utils.o
                0x000000009d006c94                can_bus_send_AdBus_RPM

.text.DMAC_Initialize
                0x000000009d006cfc       0x64
 .text.DMAC_Initialize
                0x000000009d006cfc       0x64 build/Config_2/debug/_ext/1865161661/plib_dmac.o
                0x000000009d006cfc                DMAC_Initialize

.text.write     0x000000009d006d60       0x64
 .text.write    0x000000009d006d60       0x64 build/Config_2/debug/_ext/163028504/xc32_monitor.o
                0x000000009d006d60                write

.text.fwrite    0x000000009d006dc4       0x60
 .text.fwrite   0x000000009d006dc4       0x60 c:/program files/microchip/xc32/v4.35/bin/bin/../../lib/gcc/pic32mx/8.3.1/../../../../pic32mx/lib/fpu64\libc-musl.a(fwrite.o)
                0x000000009d006dc4                fwrite_unlocked
                0x000000009d006dc4                fwrite

.text.__putc_unbuffered
                0x000000009d006e24       0x60
 .text.__putc_unbuffered
                0x000000009d006e24       0x60 c:/program files/microchip/xc32/v4.35/bin/bin/../../lib/gcc/pic32mx/8.3.1/../../../../pic32mx/lib/fpu64\libc-musl.a(putc.o)
                0x000000009d006e24                __putc_unbuffered

.text.bin_index
                0x000000009d006e84       0x60
 .text.bin_index
                0x000000009d006e84       0x60 c:/program files/microchip/xc32/v4.35/bin/bin/../../lib/gcc/pic32mx/8.3.1/../../../../pic32mx/lib/fpu64\libc-musl.a(malloc.o)

.text.fflush    0x000000009d006ee4       0x5c
 .text.fflush   0x000000009d006ee4       0x5c c:/program files/microchip/xc32/v4.35/bin/bin/../../lib/gcc/pic32mx/8.3.1/../../../../pic32mx/lib/fpu64\libc-musl.a(fflush.o)
                0x000000009d006ee4                fflush
                0x000000009d006ee4                fflush_unlocked

.text.fputs     0x000000009d006f40       0x5c
 .text.fputs    0x000000009d006f40       0x5c c:/program files/microchip/xc32/v4.35/bin/bin/../../lib/gcc/pic32mx/8.3.1/../../../../pic32mx/lib/fpu64\libc-musl.a(fputs.o)
                0x000000009d006f40                fputs_unlocked
                0x000000009d006f40                fputs

.rodata         0x000000009d006f9c       0x5c
 .rodata        0x000000009d006f9c       0x5c c:/program files/microchip/xc32/v4.35/bin/bin/../../lib/gcc/pic32mx/8.3.1/../../../../pic32mx/lib/fpu64\libc-musl.a(malloc.o)

.text.__fmt_state
                0x000000009d006ff8       0x58
 .text.__fmt_state
                0x000000009d006ff8       0x58 c:/program files/microchip/xc32/v4.35/bin/bin/../../lib/gcc/pic32mx/8.3.1/../../../../pic32mx/lib/fpu64\libc-musl.a(__printf_core.o)
                0x000000009d006ff8                __fmt_state

.text.adjust_size
                0x000000009d007050       0x58
 .text.adjust_size
                0x000000009d007050       0x58 c:/program files/microchip/xc32/v4.35/bin/bin/../../lib/gcc/pic32mx/8.3.1/../../../../pic32mx/lib/fpu64\libc-musl.a(malloc.o)

.text.trim      0x000000009d0070a8       0x58
 .text.trim     0x000000009d0070a8       0x58 c:/program files/microchip/xc32/v4.35/bin/bin/../../lib/gcc/pic32mx/8.3.1/../../../../pic32mx/lib/fpu64\libc-musl.a(malloc.o)

.text.ADC_DATA0_InterruptHandler
                0x000000009d007100       0x54
 .text.ADC_DATA0_InterruptHandler
                0x000000009d007100       0x54 build/Config_2/debug/_ext/1982400153/plib_adchs.o
                0x000000009d007100                ADC_DATA0_InterruptHandler

.text.ADC_DATA3_InterruptHandler
                0x000000009d007154       0x54
 .text.ADC_DATA3_InterruptHandler
                0x000000009d007154       0x54 build/Config_2/debug/_ext/1982400153/plib_adchs.o
                0x000000009d007154                ADC_DATA3_InterruptHandler

.text.ADC_DATA8_InterruptHandler
                0x000000009d0071a8       0x54
 .text.ADC_DATA8_InterruptHandler
                0x000000009d0071a8       0x54 build/Config_2/debug/_ext/1982400153/plib_adchs.o
                0x000000009d0071a8                ADC_DATA8_InterruptHandler

.text.ADC_DATA14_InterruptHandler
                0x000000009d0071fc       0x54
 .text.ADC_DATA14_InterruptHandler
                0x000000009d0071fc       0x54 build/Config_2/debug/_ext/1982400153/plib_adchs.o
                0x000000009d0071fc                ADC_DATA14_InterruptHandler

.text.SOUND_R2DS
                0x000000009d007250       0x54
 .text.SOUND_R2DS
                0x000000009d007250       0x54 build/Config_2/debug/_ext/1360937237/main.o
                0x000000009d007250                SOUND_R2DS

.text.can_bus_send_databus_1
                0x000000009d0072a4       0x54
 .text.can_bus_send_databus_1
                0x000000009d0072a4       0x54 build/Config_2/debug/CAN_utils.o
                0x000000009d0072a4                can_bus_send_databus_1

.text.can_filter_id_bus4
                0x000000009d0072f8       0x54
 .text.can_filter_id_bus4
                0x000000009d0072f8       0x54 build/Config_2/debug/CAN_utils.o
                0x000000009d0072f8                can_filter_id_bus4

.text.main_entry
                0x000000009d00734c       0x54
 .text.main_entry
                0x000000009d00734c       0x54 C:\Users\pedro\AppData\Local\Temp\ccPLik8y.o
                0x000000009d007380                __crt0_exit

.text.can_bus_send_databus_2
                0x000000009d0073a0       0x50
 .text.can_bus_send_databus_2
                0x000000009d0073a0       0x50 build/Config_2/debug/CAN_utils.o
                0x000000009d0073a0                can_bus_send_databus_2

.text.read      0x000000009d0073f0       0x4c
 .text.read     0x000000009d0073f0       0x4c build/Config_2/debug/_ext/163028504/xc32_monitor.o
                0x000000009d0073f0                read

.text.ADCHS_CH0_Callback
                0x000000009d00743c       0x4c
 .text.ADCHS_CH0_Callback
                0x000000009d00743c       0x4c build/Config_2/debug/_ext/1360937237/main.o
                0x000000009d00743c                ADCHS_CH0_Callback

.text.puts      0x000000009d007488       0x4c
 .text.puts     0x000000009d007488       0x4c c:/program files/microchip/xc32/v4.35/bin/bin/../../lib/gcc/pic32mx/8.3.1/../../../../pic32mx/lib/fpu64\libc-musl.a(puts.o)
                0x000000009d007488                puts

.text.IsR2D     0x000000009d0074d4       0x48
 .text.IsR2D    0x000000009d0074d4       0x48 build/Config_2/debug/_ext/1360937237/main.o
                0x000000009d0074d4                IsR2D

.text.can_bus_send_HV500_SetAcCurrent
                0x000000009d00751c       0x48
 .text.can_bus_send_HV500_SetAcCurrent
                0x000000009d00751c       0x48 build/Config_2/debug/CAN_utils.o
                0x000000009d00751c                can_bus_send_HV500_SetAcCurrent

.text.__pop_float
                0x000000009d007564       0x48
 .text.__pop_float
                0x000000009d007564       0x48 c:/program files/microchip/xc32/v4.35/bin/bin/../../lib/gcc/pic32mx/8.3.1/../../../../pic32mx/lib/fpu64\libc-musl.a(__pop_float.o)
                0x000000009d007564                __pop_float
                0x000000009d007564                __pop_float_needed

.text.ADCHS_ChannelResultInterruptEnable
                0x000000009d0075ac       0x44
 .text.ADCHS_ChannelResultInterruptEnable
                0x000000009d0075ac       0x44 build/Config_2/debug/_ext/1982400153/plib_adchs.o
                0x000000009d0075ac                ADCHS_ChannelResultInterruptEnable

.text.CORETIMER_DelayMs
                0x000000009d0075f0       0x44
 .text.CORETIMER_DelayMs
                0x000000009d0075f0       0x44 build/Config_2/debug/_ext/1249264884/plib_coretimer.o
                0x000000009d0075f0                CORETIMER_DelayMs

.text.UART1_ErrorClear.part.0
                0x000000009d007634       0x44
 .text.UART1_ErrorClear.part.0
                0x000000009d007634       0x44 build/Config_2/debug/_ext/1865657120/plib_uart1.o

.text.UART3_ErrorClear.part.0
                0x000000009d007678       0x44
 .text.UART3_ErrorClear.part.0
                0x000000009d007678       0x44 build/Config_2/debug/_ext/1865657120/plib_uart3.o

.text.ConvertAPPSToTorque
                0x000000009d0076bc       0x44
 .text.ConvertAPPSToTorque
                0x000000009d0076bc       0x44 build/Config_2/debug/TorqueControl.o
                0x000000009d0076bc                ConvertAPPSToTorque

.text           0x000000009d007700       0x44
 .text          0x000000009d007700       0x44 c:/program files/microchip/xc32/v4.35/bin/bin/../../lib/gcc/pic32mx/8.3.1/../../../../pic32mx/lib/fpu64\pic32_software_reset.o
                0x000000009d007700                __pic32_software_reset

.text.__towrite
                0x000000009d007744       0x44
 .text.__towrite
                0x000000009d007744       0x44 c:/program files/microchip/xc32/v4.35/bin/bin/../../lib/gcc/pic32mx/8.3.1/../../../../pic32mx/lib/fpu64\libc-musl.a(__towrite.o)
                0x000000009d007744                __towrite

.text.CAN1_TxFIFOQueueIsFull
                0x000000009d007788       0x40
 .text.CAN1_TxFIFOQueueIsFull
                0x000000009d007788       0x40 build/Config_2/debug/_ext/1984168316/plib_canfd1.o
                0x000000009d007788                CAN1_TxFIFOQueueIsFull

.text.CAN3_TxFIFOQueueIsFull
                0x000000009d0077c8       0x40
 .text.CAN3_TxFIFOQueueIsFull
                0x000000009d0077c8       0x40 build/Config_2/debug/_ext/1984168316/plib_canfd3.o
                0x000000009d0077c8                CAN3_TxFIFOQueueIsFull

.text.CAN2_TxFIFOQueueIsFull
                0x000000009d007808       0x40
 .text.CAN2_TxFIFOQueueIsFull
                0x000000009d007808       0x40 build/Config_2/debug/_ext/1984168316/plib_canfd2.o
                0x000000009d007808                CAN2_TxFIFOQueueIsFull

.text.CAN4_TxFIFOQueueIsFull
                0x000000009d007848       0x40
 .text.CAN4_TxFIFOQueueIsFull
                0x000000009d007848       0x40 build/Config_2/debug/_ext/1984168316/plib_canfd4.o
                0x000000009d007848                CAN4_TxFIFOQueueIsFull

.text.can_bus_send_databus_3
                0x000000009d007888       0x40
 .text.can_bus_send_databus_3
                0x000000009d007888       0x40 build/Config_2/debug/CAN_utils.o
                0x000000009d007888                can_bus_send_databus_3

.text.CORETIMER_Initialize
                0x000000009d0078c8       0x3c
 .text.CORETIMER_Initialize
                0x000000009d0078c8       0x3c build/Config_2/debug/_ext/1249264884/plib_coretimer.o
                0x000000009d0078c8                CORETIMER_Initialize

.text.can_bus_send_HV500_SetERPM
                0x000000009d007904       0x3c
 .text.can_bus_send_HV500_SetERPM
                0x000000009d007904       0x3c build/Config_2/debug/CAN_utils.o
                0x000000009d007904                can_bus_send_HV500_SetERPM

.text.__wrap_printf
                0x000000009d007940       0x3c
 .text.__wrap_printf
                0x000000009d007940       0x3c c:/program files/microchip/xc32/v4.35/bin/bin/../../lib/gcc/pic32mx/8.3.1/../../../../pic32mx/lib/fpu64\libc-musl.a(__sio_printf_dn.o)
                0x000000009d007940                _printf_dn
                0x000000009d007940                _dprintf_dn

.text.__vfprintf
                0x000000009d00797c       0x3c
 .text.__vfprintf
                0x000000009d00797c       0x3c c:/program files/microchip/xc32/v4.35/bin/bin/../../lib/gcc/pic32mx/8.3.1/../../../../pic32mx/lib/fpu64\libc-musl.a(__int_vfprintf.o)
                0x000000009d00797c                __vfprintf

.text.__towrite_rw
                0x000000009d0079b8       0x3c
 .text.__towrite_rw
                0x000000009d0079b8       0x3c c:/program files/microchip/xc32/v4.35/bin/bin/../../lib/gcc/pic32mx/8.3.1/../../../../pic32mx/lib/fpu64\libc-musl.a(__towrite_rw.o)
                0x000000009d0079b8                __towrite_rw
                0x000000009d0079b8                __towrite_rw_needed

.text.__expand_heap
                0x000000009d0079f4       0x3c
 .text.__expand_heap
                0x000000009d0079f4       0x3c c:/program files/microchip/xc32/v4.35/bin/bin/../../lib/gcc/pic32mx/8.3.1/../../../../pic32mx/lib/fpu64\libc-musl.a(expand_heap.o)
                0x000000009d0079f4                __expand_heap

.text           0x000000009d007a30       0x78
 .text          0x000000009d007a30       0x3c c:/program files/microchip/xc32/v4.35/bin/bin/../../lib/gcc/pic32mx/8.3.1/fpu64\libgcc.a(_lshrdi3.o)
                0x000000009d007a30                __lshrdi3
 .text          0x000000009d007a6c       0x3c c:/program files/microchip/xc32/v4.35/bin/bin/../../lib/gcc/pic32mx/8.3.1/fpu64\libgcc.a(_ashldi3.o)
                0x000000009d007a6c                __ashldi3

.text.TMR4_Initialize
                0x000000009d007aa8       0x38
 .text.TMR4_Initialize
                0x000000009d007aa8       0x38 build/Config_2/debug/_ext/60181895/plib_tmr4.o
                0x000000009d007aa8                TMR4_Initialize

.text.TMR6_Initialize
                0x000000009d007ae0       0x38
 .text.TMR6_Initialize
                0x000000009d007ae0       0x38 build/Config_2/debug/_ext/60181895/plib_tmr6.o
                0x000000009d007ae0                TMR6_Initialize

.text.TMR5_Initialize
                0x000000009d007b18       0x38
 .text.TMR5_Initialize
                0x000000009d007b18       0x38 build/Config_2/debug/_ext/60181895/plib_tmr5.o
                0x000000009d007b18                TMR5_Initialize

.text.TMR6_500ms
                0x000000009d007b50       0x38
 .text.TMR6_500ms
                0x000000009d007b50       0x38 build/Config_2/debug/_ext/1360937237/main.o
                0x000000009d007b50                TMR6_500ms

.text.can_bus_send_databus_4
                0x000000009d007b88       0x38
 .text.can_bus_send_databus_4
                0x000000009d007b88       0x38 build/Config_2/debug/CAN_utils.o
                0x000000009d007b88                can_bus_send_databus_4

.text.__fclose  0x000000009d007bc0       0x38
 .text.__fclose
                0x000000009d007bc0       0x38 c:/program files/microchip/xc32/v4.35/bin/bin/../../lib/gcc/pic32mx/8.3.1/../../../../pic32mx/lib/fpu64\libc-musl.a(__fclose.o)
                0x000000009d007bc0                __fclose
                0x000000009d007bc0                __fclose_needed

.text.TMR2_Initialize
                0x000000009d007bf8       0x34
 .text.TMR2_Initialize
                0x000000009d007bf8       0x34 build/Config_2/debug/_ext/60181895/plib_tmr2.o
                0x000000009d007bf8                TMR2_Initialize

.text.TIMER_2_InterruptHandler
                0x000000009d007c2c       0x34
 .text.TIMER_2_InterruptHandler
                0x000000009d007c2c       0x34 build/Config_2/debug/_ext/60181895/plib_tmr2.o
                0x000000009d007c2c                TIMER_2_InterruptHandler

.text.TIMER_4_InterruptHandler
                0x000000009d007c60       0x34
 .text.TIMER_4_InterruptHandler
                0x000000009d007c60       0x34 build/Config_2/debug/_ext/60181895/plib_tmr4.o
                0x000000009d007c60                TIMER_4_InterruptHandler

.text.TMR3_Initialize
                0x000000009d007c94       0x34
 .text.TMR3_Initialize
                0x000000009d007c94       0x34 build/Config_2/debug/_ext/60181895/plib_tmr3.o
                0x000000009d007c94                TMR3_Initialize

.text.TIMER_3_InterruptHandler
                0x000000009d007cc8       0x34
 .text.TIMER_3_InterruptHandler
                0x000000009d007cc8       0x34 build/Config_2/debug/_ext/60181895/plib_tmr3.o
                0x000000009d007cc8                TIMER_3_InterruptHandler

.text.TIMER_6_InterruptHandler
                0x000000009d007cfc       0x34
 .text.TIMER_6_InterruptHandler
                0x000000009d007cfc       0x34 build/Config_2/debug/_ext/60181895/plib_tmr6.o
                0x000000009d007cfc                TIMER_6_InterruptHandler

.text.TIMER_5_InterruptHandler
                0x000000009d007d30       0x34
 .text.TIMER_5_InterruptHandler
                0x000000009d007d30       0x34 build/Config_2/debug/_ext/60181895/plib_tmr5.o
                0x000000009d007d30                TIMER_5_InterruptHandler

.text.TMR1_Initialize
                0x000000009d007d64       0x34
 .text.TMR1_Initialize
                0x000000009d007d64       0x34 build/Config_2/debug/_ext/1865638794/plib_tmr1.o
                0x000000009d007d64                TMR1_Initialize

.text.TIMER_1_InterruptHandler
                0x000000009d007d98       0x34
 .text.TIMER_1_InterruptHandler
                0x000000009d007d98       0x34 build/Config_2/debug/_ext/1865638794/plib_tmr1.o
                0x000000009d007d98                TIMER_1_InterruptHandler

.text.TMR4_500ms
                0x000000009d007dcc       0x34
 .text.TMR4_500ms
                0x000000009d007dcc       0x34 build/Config_2/debug/_ext/1360937237/main.o
                0x000000009d007dcc                TMR4_500ms

.text.can_bus_send_HV500_SetDriveEnable
                0x000000009d007e00       0x34
 .text.can_bus_send_HV500_SetDriveEnable
                0x000000009d007e00       0x34 build/Config_2/debug/CAN_utils.o
                0x000000009d007e00                can_bus_send_HV500_SetDriveEnable

.text.lock_bin  0x000000009d007e34       0x34
 .text.lock_bin
                0x000000009d007e34       0x34 c:/program files/microchip/xc32/v4.35/bin/bin/../../lib/gcc/pic32mx/8.3.1/../../../../pic32mx/lib/fpu64\libc-musl.a(malloc.o)

.text.__fwrite  0x000000009d007e68       0x34
 .text.__fwrite
                0x000000009d007e68       0x34 c:/program files/microchip/xc32/v4.35/bin/bin/../../lib/gcc/pic32mx/8.3.1/../../../../pic32mx/lib/fpu64\libc-musl.a(__fwrite.o)
                0x000000009d007e68                __fwrite_needed
                0x000000009d007e68                __fwrite

.text.DIP_Switch
                0x000000009d007e9c       0x30
 .text.DIP_Switch
                0x000000009d007e9c       0x30 build/Config_2/debug/_ext/1360937237/main.o
                0x000000009d007e9c                DIP_Switch

.rodata.cst8    0x000000009d007ed0       0x30
 .rodata.cst8   0x000000009d007ed0       0x30 build/Config_2/debug/_ext/1360937237/main.o

.text.strlen    0x000000009d007f00       0x30
 .text.strlen   0x000000009d007f00       0x30 c:/program files/microchip/xc32/v4.35/bin/bin/../../lib/gcc/pic32mx/8.3.1/../../../../pic32mx/lib/fpu64\libc-musl.a(strlen.o)
                0x000000009d007f00                strlen

.text.memcpy    0x000000009d007f30       0x2c
 .text.memcpy   0x000000009d007f30       0x2c c:/program files/microchip/xc32/v4.35/bin/bin/../../lib/gcc/pic32mx/8.3.1/../../../../pic32mx/lib/fpu64\libc-musl.a(memcpy.o)
                0x000000009d007f30                memcpy

.text._stub_sbd_memlayout
                0x000000009d007f5c       0x2c
 .text._stub_sbd_memlayout
                0x000000009d007f5c       0x2c c:/program files/microchip/xc32/v4.35/bin/bin/../../lib/gcc/pic32mx/8.3.1/../../../../pic32mx/lib/fpu64\libpic32.a(sbrk.o)
                0x000000009d007f5c                _sbd_memlayout
                0x000000009d007f5c                _stub_sbd_memlayout

.text.UART1_Initialize
                0x000000009d007f88       0x28
 .text.UART1_Initialize
                0x000000009d007f88       0x28 build/Config_2/debug/_ext/1865657120/plib_uart1.o
                0x000000009d007f88                UART1_Initialize

.text.UART3_Initialize
                0x000000009d007fb0       0x28
 .text.UART3_Initialize
                0x000000009d007fb0       0x28 build/Config_2/debug/_ext/1865657120/plib_uart3.o
                0x000000009d007fb0                UART3_Initialize

.text.setbuf    0x000000009d007fd8       0x24
 .text.setbuf   0x000000009d007fd8       0x24 c:/program files/microchip/xc32/v4.35/bin/bin/../../lib/gcc/pic32mx/8.3.1/../../../../pic32mx/lib/fpu64\libc-musl.a(setbuf.o)
                0x000000009d007fd8                setbuf

.text.ADCHS_CallbackRegister
                0x000000009d007ffc       0x20
 .text.ADCHS_CallbackRegister
                0x000000009d007ffc       0x20 build/Config_2/debug/_ext/1982400153/plib_adchs.o
                0x000000009d007ffc                ADCHS_CallbackRegister

.text._general_exception_handler
                0x000000009d00801c       0x20
 .text._general_exception_handler
                0x000000009d00801c       0x20 build/Config_2/debug/_ext/1171490990/exceptions.o
                0x000000009d00801c                _general_exception_handler

.rodata.cst4    0x000000009d00803c       0x20
 .rodata.cst4   0x000000009d00803c       0x20 build/Config_2/debug/_ext/1360937237/main.o

.text.__fwrite_min
                0x000000009d00805c       0x20
 .text.__fwrite_min
                0x000000009d00805c       0x20 c:/program files/microchip/xc32/v4.35/bin/bin/../../lib/gcc/pic32mx/8.3.1/../../../../pic32mx/lib/fpu64\libc-musl.a(__out.o)
                0x000000009d00805c                __stdio_write
                0x000000009d00805c                __stdio_write_unbuffered

.text           0x000000009d00807c       0x20
 .text          0x000000009d00807c       0x20 c:/program files/microchip/xc32/v4.35/bin/bin/../../lib/gcc/pic32mx/8.3.1/../../../../pic32mx/lib/fpu64\libpic32.a(pic32_data_init_copy.o)
                0x000000009d00807c                __dinit_copy_needed
                0x000000009d00807c                __dinit_copy

.text.ADCHS_ModulesEnable
                0x000000009d00809c       0x1c
 .text.ADCHS_ModulesEnable
                0x000000009d00809c       0x1c build/Config_2/debug/_ext/1982400153/plib_adchs.o
                0x000000009d00809c                ADCHS_ModulesEnable

.text.WDT_Enable
                0x000000009d0080b8       0x1c
 .text.WDT_Enable
                0x000000009d0080b8       0x1c build/Config_2/debug/_ext/60184501/plib_wdt.o
                0x000000009d0080b8                WDT_Enable

.text.tolower   0x000000009d0080d4       0x1c
 .text.tolower  0x000000009d0080d4       0x1c c:/program files/microchip/xc32/v4.35/bin/bin/../../lib/gcc/pic32mx/8.3.1/../../../../pic32mx/lib/fpu64\libc-musl.a(tolower.o)
                0x000000009d0080d4                tolower

.text.putc      0x000000009d0080f0       0x1c
 .text.putc     0x000000009d0080f0       0x1c c:/program files/microchip/xc32/v4.35/bin/bin/../../lib/gcc/pic32mx/8.3.1/../../../../pic32mx/lib/fpu64\libc-musl.a(putc.o)
                0x000000009d0080f0                putc_unlocked
                0x000000009d0080f0                putc
                0x000000009d0080f0                _IO_putc
                0x000000009d0080f0                fputc

.MIPS.abiflags  0x000000009d008110       0x18
 .MIPS.abiflags
                0x000000009d008110       0x18 c:/program files/microchip/xc32/v4.35/bin/bin/../../lib/gcc/pic32mx/8.3.1/../../../../pic32mx/lib/fpu64\software-debug-break.o

.text.ADCHS_ChannelResultGet
                0x000000009d008128       0x18
 .text.ADCHS_ChannelResultGet
                0x000000009d008128       0x18 build/Config_2/debug/_ext/1982400153/plib_adchs.o
                0x000000009d008128                ADCHS_ChannelResultGet

.text.CORETIMER_CounterGet
                0x000000009d008140       0x18
 .text.CORETIMER_CounterGet
                0x000000009d008140       0x18 build/Config_2/debug/_ext/1249264884/plib_coretimer.o
                0x000000009d008140                CORETIMER_CounterGet

.text.WDT_Clear
                0x000000009d008158       0x18
 .text.WDT_Clear
                0x000000009d008158       0x18 build/Config_2/debug/_ext/60184501/plib_wdt.o
                0x000000009d008158                WDT_Clear

.text.ConvertTorqueToCurrent
                0x000000009d008170       0x18
 .text.ConvertTorqueToCurrent
                0x000000009d008170       0x18 build/Config_2/debug/TorqueControl.o
                0x000000009d008170                ConvertTorqueToCurrent

.text           0x000000009d008188       0x18
 .text          0x000000009d008188       0x18 c:/program files/microchip/xc32/v4.35/bin/bin/../../lib/gcc/pic32mx/8.3.1/../../../../pic32mx/lib/fpu64\libpic32.a(default-nmi-handler.o)
                0x000000009d008188                _nmi_handler

.rodata         0x000000009d0081a0       0x18
 .rodata        0x000000009d0081a0       0x18 c:/program files/microchip/xc32/v4.35/bin/bin/../../lib/gcc/pic32mx/8.3.1/../../../../pic32mx/lib/fpu64\libc-musl.a(__printf_core.o)

.text           0x000000009d0081b8       0x18
 .text          0x000000009d0081b8       0x18 c:/program files/microchip/xc32/v4.35/bin/bin/../../lib/gcc/pic32mx/8.3.1/../../../../pic32mx/lib/fpu64\libpic32.a(pic32_data_init_clear.o)
                0x000000009d0081b8                __dinit_clear_needed
                0x000000009d0081b8                __dinit_clear

.text.CAN1_ErrorGet
                0x000000009d0081d0       0x14
 .text.CAN1_ErrorGet
                0x000000009d0081d0       0x14 build/Config_2/debug/_ext/1984168316/plib_canfd1.o
                0x000000009d0081d0                CAN1_ErrorGet

.text.CAN3_ErrorGet
                0x000000009d0081e4       0x14
 .text.CAN3_ErrorGet
                0x000000009d0081e4       0x14 build/Config_2/debug/_ext/1984168316/plib_canfd3.o
                0x000000009d0081e4                CAN3_ErrorGet

.text.CAN2_ErrorGet
                0x000000009d0081f8       0x14
 .text.CAN2_ErrorGet
                0x000000009d0081f8       0x14 build/Config_2/debug/_ext/1984168316/plib_canfd2.o
                0x000000009d0081f8                CAN2_ErrorGet

.text.CAN4_ErrorGet
                0x000000009d00820c       0x14
 .text.CAN4_ErrorGet
                0x000000009d00820c       0x14 build/Config_2/debug/_ext/1984168316/plib_canfd4.o
                0x000000009d00820c                CAN4_ErrorGet

.text.TMR2_Start
                0x000000009d008220       0x14
 .text.TMR2_Start
                0x000000009d008220       0x14 build/Config_2/debug/_ext/60181895/plib_tmr2.o
                0x000000009d008220                TMR2_Start

.text.TMR2_CallbackRegister
                0x000000009d008234       0x14
 .text.TMR2_CallbackRegister
                0x000000009d008234       0x14 build/Config_2/debug/_ext/60181895/plib_tmr2.o
                0x000000009d008234                TMR2_CallbackRegister

.text.TMR4_Start
                0x000000009d008248       0x14
 .text.TMR4_Start
                0x000000009d008248       0x14 build/Config_2/debug/_ext/60181895/plib_tmr4.o
                0x000000009d008248                TMR4_Start

.text.TMR4_CallbackRegister
                0x000000009d00825c       0x14
 .text.TMR4_CallbackRegister
                0x000000009d00825c       0x14 build/Config_2/debug/_ext/60181895/plib_tmr4.o
                0x000000009d00825c                TMR4_CallbackRegister

.text.TMR3_Start
                0x000000009d008270       0x14
 .text.TMR3_Start
                0x000000009d008270       0x14 build/Config_2/debug/_ext/60181895/plib_tmr3.o
                0x000000009d008270                TMR3_Start

.text.TMR6_Start
                0x000000009d008284       0x14
 .text.TMR6_Start
                0x000000009d008284       0x14 build/Config_2/debug/_ext/60181895/plib_tmr6.o
                0x000000009d008284                TMR6_Start

.text.TMR6_Stop
                0x000000009d008298       0x14
 .text.TMR6_Stop
                0x000000009d008298       0x14 build/Config_2/debug/_ext/60181895/plib_tmr6.o
                0x000000009d008298                TMR6_Stop

.text.TMR6_CallbackRegister
                0x000000009d0082ac       0x14
 .text.TMR6_CallbackRegister
                0x000000009d0082ac       0x14 build/Config_2/debug/_ext/60181895/plib_tmr6.o
                0x000000009d0082ac                TMR6_CallbackRegister

.text.TMR5_Start
                0x000000009d0082c0       0x14
 .text.TMR5_Start
                0x000000009d0082c0       0x14 build/Config_2/debug/_ext/60181895/plib_tmr5.o
                0x000000009d0082c0                TMR5_Start

.text.TMR5_Stop
                0x000000009d0082d4       0x14
 .text.TMR5_Stop
                0x000000009d0082d4       0x14 build/Config_2/debug/_ext/60181895/plib_tmr5.o
                0x000000009d0082d4                TMR5_Stop

.text.TMR5_CallbackRegister
                0x000000009d0082e8       0x14
 .text.TMR5_CallbackRegister
                0x000000009d0082e8       0x14 build/Config_2/debug/_ext/60181895/plib_tmr5.o
                0x000000009d0082e8                TMR5_CallbackRegister

.text.TMR1_Start
                0x000000009d0082fc       0x14
 .text.TMR1_Start
                0x000000009d0082fc       0x14 build/Config_2/debug/_ext/1865638794/plib_tmr1.o
                0x000000009d0082fc                TMR1_Start

.text.TMR1_CallbackRegister
                0x000000009d008310       0x14
 .text.TMR1_CallbackRegister
                0x000000009d008310       0x14 build/Config_2/debug/_ext/1865638794/plib_tmr1.o
                0x000000009d008310                TMR1_CallbackRegister

.text.TMR5_3s   0x000000009d008324       0x14
 .text.TMR5_3s  0x000000009d008324       0x14 build/Config_2/debug/_ext/1360937237/main.o
                0x000000009d008324                TMR5_3s

.rodata.main.str1.4
                0x000000009d008338       0x14
 .rodata.main.str1.4
                0x000000009d008338       0x14 build/Config_2/debug/_ext/1360937237/main.o

.rodata         0x000000009d00834c       0x14
 .rodata        0x000000009d00834c       0x14 c:/program files/microchip/xc32/v4.35/bin/bin/../../lib/gcc/pic32mx/8.3.1/../../../../pic32mx/lib/fpu64\libpic32.a(pic32_data_init_core.o)

.rodata.dlcToLength
                0x000000009d008360       0x20
 .rodata.dlcToLength
                0x000000009d008360       0x10 build/Config_2/debug/_ext/1984168316/plib_canfd1.o
 .rodata.dlcToLength
                0x000000009d008370       0x10 build/Config_2/debug/_ext/1984168316/plib_canfd3.o

.rodata.dlcToLength
                0x000000009d008380       0x20
 .rodata.dlcToLength
                0x000000009d008380       0x10 build/Config_2/debug/_ext/1984168316/plib_canfd2.o
 .rodata.dlcToLength
                0x000000009d008390       0x10 build/Config_2/debug/_ext/1984168316/plib_canfd4.o

.text.UART1_ReceiverIsReady
                0x000000009d0083a0       0x10
 .text.UART1_ReceiverIsReady
                0x000000009d0083a0       0x10 build/Config_2/debug/_ext/1865657120/plib_uart1.o
                0x000000009d0083a0                UART1_ReceiverIsReady

.text._bootstrap_exception_handler
                0x000000009d0083b0       0x10
 .text._bootstrap_exception_handler
                0x000000009d0083b0       0x10 build/Config_2/debug/_ext/1171490990/exceptions.o
                0x000000009d0083b0                _bootstrap_exception_handler

.rodata.cst8    0x000000009d0083c0       0x10
 .rodata.cst8   0x000000009d0083c0       0x10 build/Config_2/debug/APPS.o

.text.__exception_handler_break
                0x000000009d0083d0        0xc
 .text.__exception_handler_break
                0x000000009d0083d0        0xc c:/program files/microchip/xc32/v4.35/bin/bin/../../lib/gcc/pic32mx/8.3.1/../../../../pic32mx/lib/fpu64\software-debug-break.o
                0x000000009d0083d0                __exception_handler_break

.rodata.str1.4  0x000000009d0083dc        0xc
 .rodata.str1.4
                0x000000009d0083dc        0xc c:/program files/microchip/xc32/v4.35/bin/bin/../../lib/gcc/pic32mx/8.3.1/../../../../pic32mx/lib/fpu64\libc-musl.a(__printf_core.o)

.text.ADCHS_CH3_Callback
                0x000000009d0083e8        0x8
 .text.ADCHS_CH3_Callback
                0x000000009d0083e8        0x8 build/Config_2/debug/_ext/1360937237/main.o
                0x000000009d0083e8                ADCHS_CH3_Callback

.text.ADCHS_CH8_Callback
                0x000000009d0083f0        0x8
 .text.ADCHS_CH8_Callback
                0x000000009d0083f0        0x8 build/Config_2/debug/_ext/1360937237/main.o
                0x000000009d0083f0                ADCHS_CH8_Callback

.text.ADCHS_CH14_Callback
                0x000000009d0083f8        0x8
 .text.ADCHS_CH14_Callback
                0x000000009d0083f8        0x8 build/Config_2/debug/_ext/1360937237/main.o
                0x000000009d0083f8                ADCHS_CH14_Callback

.rodata.cst4    0x000000009d008400        0x8
 .rodata.cst4   0x000000009d008400        0x8 build/Config_2/debug/TorqueControl.o

.rodata.cst8    0x000000009d008408        0x8
 .rodata.cst8   0x000000009d008408        0x8 build/Config_2/debug/TorqueControl.o

.text._on_reset
                0x000000009d008410        0x8
 .text._on_reset
                0x000000009d008410        0x8 c:/program files/microchip/xc32/v4.35/bin/bin/../../lib/gcc/pic32mx/8.3.1/../../../../pic32mx/lib/fpu64\libpic32.a(default-on-reset.o)
                0x000000009d008410                _on_reset

.text._on_bootstrap
                0x000000009d008418        0x8
 .text._on_bootstrap
                0x000000009d008418        0x8 c:/program files/microchip/xc32/v4.35/bin/bin/../../lib/gcc/pic32mx/8.3.1/../../../../pic32mx/lib/fpu64\libpic32.a(default-on-bootstrap.o)
                0x000000009d008418                _on_bootstrap

.text.__dummy_fmt3
                0x000000009d008420        0x8
 .text.__dummy_fmt3
                0x000000009d008420        0x8 c:/program files/microchip/xc32/v4.35/bin/bin/../../lib/gcc/pic32mx/8.3.1/../../../../pic32mx/lib/fpu64\libc-musl.a(__printf_core.o)
                0x000000009d008420                __fmt_u
                0x000000009d008420                __fmt_o

.text.__dummy_fmt4
                0x000000009d008428        0x8
 .text.__dummy_fmt4
                0x000000009d008428        0x8 c:/program files/microchip/xc32/v4.35/bin/bin/../../lib/gcc/pic32mx/8.3.1/../../../../pic32mx/lib/fpu64\libc-musl.a(__printf_core.o)
                0x000000009d008428                __fmt_a
                0x000000009d008428                __fmt_fp
                0x000000009d008428                __fmt_x

.text.__dummy_fmts
                0x000000009d008430        0x8
 .text.__dummy_fmts
                0x000000009d008430        0x8 c:/program files/microchip/xc32/v4.35/bin/bin/../../lib/gcc/pic32mx/8.3.1/../../../../pic32mx/lib/fpu64\libc-musl.a(__printf_core.o)
                0x000000009d008430                __fmt_s

.text.__dummy1  0x000000009d008438        0x8
 .text.__dummy1
                0x000000009d008438        0x8 c:/program files/microchip/xc32/v4.35/bin/bin/../../lib/gcc/pic32mx/8.3.1/../../../../pic32mx/lib/fpu64\libc-musl.a(fflush.o)
                0x000000009d008438                __fflush_ofl

.text.__dummy   0x000000009d008440       0x10
 .text.__dummy  0x000000009d008440        0x8 c:/program files/microchip/xc32/v4.35/bin/bin/../../lib/gcc/pic32mx/8.3.1/../../../../pic32mx/lib/fpu64\libc-musl.a(stdin.o)
                0x000000009d008440                __stdio_seek_rw
 .text.__dummy  0x000000009d008448        0x8 c:/program files/microchip/xc32/v4.35/bin/bin/../../lib/gcc/pic32mx/8.3.1/../../../../pic32mx/lib/fpu64\libc-musl.a(stdout.o)
                0x000000009d008448                __stdio_seek

.text.lseek     0x000000009d008450        0x8
 .text.lseek    0x000000009d008450        0x8 c:/program files/microchip/xc32/v4.35/bin/bin/../../lib/gcc/pic32mx/8.3.1/../../../../pic32mx/lib/fpu64\libpic32.a(lseek.o)
                0x000000009d008450                lseek

.text.close     0x000000009d008458        0x8
 .text.close    0x000000009d008458        0x8 c:/program files/microchip/xc32/v4.35/bin/bin/../../lib/gcc/pic32mx/8.3.1/../../../../pic32mx/lib/fpu64\libpic32.a(close.o)
                0x000000009d008458                close

.rodata.cst4    0x000000009d00017c        0x4
 .rodata.cst4   0x000000009d00017c        0x4 build/Config_2/debug/APPS.o
